(dp0
V/b/ (disambiguation)
p1
(lp2
(V/wiki//b%CC%BA/
p3
V/b\u033a/
p4
tp5
a(V/wiki//b%CD%86/
p6
V/b\u0346/
p7
tp8
a(V/wiki/Voiced_bilabial_stop
p9
VVoiced bilabial stop
p10
tp11
asV\u005cb
p12
(lp13
(V/wiki/Backspace
p14
VBackspace
p15
tp16
a(V/wiki/Regular_expression
p17
VRegular expression
p18
tp19
asVB (disambiguation)
p20
(lp21
(V#Science_and_technology
p22
Ntp23
a(V#Astronomy
p24
Ntp25
a(V#Symbols_for_physical_and_chemical_quantities_and_units
p26
Ntp27
a(V#Music
p28
Ntp29
a(V#Computing_and_internet
p30
Ntp31
a(V#Linguistics
p32
Ntp33
a(V#Media
p34
Ntp35
a(V#Sport
p36
Ntp37
a(V#Transportation
p38
Ntp39
a(V#Other_uses
p40
Ntp41
a(V#See_also
p42
Ntp43
asVB Boy
p44
(lp45
(V/wiki/B-boy
p46
VB-boy
p47
tp48
a(V/wiki/B-Boy
p49
VB-Boy
p50
tp51
a(V/wiki/List_of_PlayStation_2_games#B
p52
VList of PlayStation 2 games
p53
tp54
a(V/wiki/B_Boy_Baby
p55
VB Boy Baby
p56
tp57
a(V/wiki/B_Boy_(song)
p58
VB Boy (song)
p59
tp60
a(V/wiki/B-Boy_Park
p61
VB-Boy Park
p62
tp63
a(V/wiki/B-Boy_Records
p64
VB-Boy Records
p65
tp66
a(V/wiki/B_Boys
p67
VB Boys
p68
tp69
a(V/wiki/Planet_B-Boy
p70
VPlanet B-Boy
p71
tp72
asVB class
p73
(lp74
(V#Ships
p75
Ntp76
a(V#Trains
p77
Ntp78
a(V#Other_uses
p79
Ntp80
a(V#See_also
p81
Ntp82
asVB Division
p83
(lp84
(V/wiki/B_Division_(New_York_City_Subway)
p85
VB Division (New York City Subway)
p86
tp87
a(V/wiki/Irish_League_B_Division
p88
VIrish League B Division
p89
tp90
a(V/wiki/Scottish_Football_League_Division_B
p91
VScottish Football League Division B
p92
tp93
a(V/wiki/Divizia_B
p94
VDivizia B
p95
tp96
a(V/wiki/Moldovan_%22B%22_Division
p97
VMoldovan "B" Division
p98
tp99
a(V/wiki/Tuvalu_B-Division
p100
VTuvalu B-Division
p101
tp102
a(V/wiki/FIBA_EuroBasket_Division_B
p103
VFIBA EuroBasket Division B
p104
tp105
a(V/wiki/Minor_Hockey_League_Division_B
p106
VMinor Hockey League Division B
p107
tp108
a(V/wiki/Homicide:_Division_B
p109
VHomicide: Division B
p110
tp111
asVB flow
p112
(lp113
(V/wiki/Medical_ultrasound#Modes
p114
VMedical ultrasound
p115
tp116
a(V/wiki/B%27Flow
p117
VB'Flow
p118
tp119
asVB Hill
p120
(lp121
(V/wiki/A.B._Hill
p122
VA.B. Hill
p123
tp124
a(V/wiki/Austin_Bradford_Hill
p125
VAustin Bradford Hill
p126
tp127
a(V/wiki/David_B._Hill
p128
VDavid B. Hill
p129
tp130
a(V/wiki/James_B._Hill
p131
VJames B. Hill
p132
tp133
a(V/wiki/Samuel_B._Hill
p134
VSamuel B. Hill
p135
tp136
a(V/wiki/Walter_Barnard_Hill
p137
VWalter Barnard Hill
p138
tp139
asVB Line
p140
(lp141
(V#Transportation
p142
Ntp143
a(V#Music
p144
Ntp145
a(V#Computers
p146
Ntp147
a(V#See_also
p148
Ntp149
asVB movie (disambiguation)
p150
(lp151
(V/wiki/National_Legion_of_Decency#Rating_system
p152
VNational Legion of Decency
p153
tp154
a(V/wiki/Bee_Movie
p155
VBee Movie
p156
tp157
a(V/w/index.php?title=B-Movie:_Lust_%26_Sound_in_West-Berlin_1979-1989&action=edit&redlink=1
p158
VB-Movie: Lust & Sound in West-Berlin 1979-1989 (page does not exist)
p159
tp160
asVB notation
p161
(lp162
(V/wiki/B_notation_(scientific_notation)
p163
VB notation (scientific notation)
p164
tp165
a(V/wiki/B_method
p166
VB method
p167
tp168
asVB road
p169
(lp170
(V/wiki/B_roads_in_Australia
p171
VB roads in Australia
p172
tp173
a(V/wiki/B_roads_in_Cyprus
p174
VB roads in Cyprus
p175
tp176
a(V/wiki/Bundesstrasse
p177
VBundesstrasse
p178
tp179
a(V/wiki/Roads_in_the_Isle_of_Man
p180
VRoads in the Isle of Man
p181
tp182
a(V/wiki/B_roads_in_Jamaica
p183
VB roads in Jamaica
p184
tp185
a(V/wiki/B_roads_in_Kenya
p186
VB roads in Kenya
p187
tp188
a(V/wiki/B_roads_in_Malaysia
p189
VB roads in Malaysia
p190
tp191
a(V/wiki/B_roads_in_Great_Britain
p192
VB roads in Great Britain
p193
tp194
a(g192
g193
tp195
a(V/wiki/Roads_in_Northern_Ireland
p196
VRoads in Northern Ireland
p197
tp198
a(V/wiki/List_of_County-Designated_Highways_in_Michigan#Highways_in_B_zone
p199
VList of County-Designated Highways in Michigan
p200
tp201
a(g199
g200
tp202
a(V/wiki/Corridor_B
p203
VCorridor B
p204
tp205
asVB series
p206
(lp207
(V/wiki/A_series_and_B_series
p208
VA series and B series
p209
tp210
a(V/wiki/Butcher_group#Butcher_series_and_Runge\u2013Kutta_method
p211
VButcher group
p212
tp213
a(V/wiki/BMC_B-series_engine
p214
VBMC B-series engine
p215
tp216
a(V/wiki/Chevrolet/GMC_B_series
p217
VChevrolet/GMC B series
p218
tp219
a(V/wiki/Transperth_B-series_train
p220
VTransperth B-series train
p221
tp222
asVThe B Team (disambiguation)
p223
(lp224
(V/wiki/The_B_Team_(TV_series)
p225
VThe B Team (TV series)
p226
tp227
a(V/wiki/The_B_Team_with_Peter_Berner
p228
VThe B Team with Peter Berner
p229
tp230
asVB Train
p231
(lp232
(V/wiki/B_(New_York_City_Subway_service)
p233
VB (New York City Subway service)
p234
tp235
a(V/wiki/Green_Line_%22B%22_Branch
p236
VGreen Line "B" Branch
p237
tp238
a(V/wiki/B-Train
p239
VB-Train
p240
tp241
asVB type
p242
(lp243
(V/wiki/B-type_asteroid
p244
VB-type asteroid
p245
tp246
a(V/wiki/B_type_blood
p247
VB type blood
p248
tp249
a(V/wiki/B-type_giant
p250
VB-type giant
p251
tp252
a(V/wiki/B_type_inclusion
p253
VB type inclusion
p254
tp255
a(V/wiki/B-type_natriuretic_peptide
p256
VB-type natriuretic peptide
p257
tp258
a(V/wiki/B_type_proanthocyanidin
p259
VB type proanthocyanidin
p260
tp261
a(V/wiki/B-type_star
p262
VB-type star
p263
tp264
a(V/wiki/B-type_warbird
p265
VB-type warbird
p266
tp267
a(V/wiki/Type_B_evaluation_of_uncertainty
p268
VType B evaluation of uncertainty
p269
tp270
a(V/wiki/Type_B_personality
p271
VType B personality
p272
tp273
a(V/wiki/Type_B_videotape
p274
VType B videotape
p275
tp276
a(V/wiki/Curtiss-built_B-type
p277
VCurtiss-built B-type
p278
tp279
a(V/wiki/LGOC_B-type
p280
VLGOC B-type
p281
tp282
a(V/wiki/Mann_Egerton_Type_B
p283
VMann Egerton Type B
p284
tp285
a(V/wiki/Toyota_Type_B_engine
p286
VToyota Type B engine
p287
tp288
a(V/wiki/Vauxhall_B-Type
p289
VVauxhall B-Type
p290
tp291
a(V/wiki/Type_B_ship
p292
VType B ship
p293
tp294
asVB word
p295
(lp296
(V/wiki/Bastard_(disambiguation)
p297
VBastard (disambiguation)
p298
tp299
a(V/wiki/Bitch_(slang)
p300
VBitch (slang)
p301
tp302
a(V/wiki/Bite_(disambiguation)
p303
VBite (disambiguation)
p304
tp305
a(V/wiki/Brexit
p306
VBrexit
p307
tp308
asVB-
p309
(lp310
(V/wiki/Blood_type
p311
VBlood type
p312
tp313
a(V/wiki/B-_(grade)
p314
VB- (grade)
p315
tp316
a(V/wiki/B%E2%88%92L
p317
VB\u2212L
p318
tp319
asVB-2 status
p320
(lp321
(V/wiki/List_of_South_Korean_visas
p322
VList of South Korean visas
p323
tp324
a(V/wiki/B_visa
p325
VB visa
p326
tp327
a(V/wiki/India
p328
VIndia
p329
tp330
asVB-Boy Stance
p331
(lp332
(V/wiki/K-os
p333
VK-os
p334
tp335
a(V/wiki/Cassidy_(rapper)
p336
VCassidy (rapper)
p337
tp338
asVB-boys
p339
(lp340
(V/wiki/2020_Democratic_Party_presidential_primaries
p341
V2020 Democratic Party presidential primaries
p342
tp343
a(V/wiki/Breakdancing
p344
VBreakdancing
p345
tp346
asVB-class submarine
p347
(lp348
(V/wiki/British_B-class_submarine
p349
VBritish B-class submarine
p350
tp351
a(V/wiki/Norwegian_B-class_submarine
p352
VNorwegian B-class submarine
p353
tp354
a(V/w/index.php?title=Spanish_B-class_submarine&action=edit&redlink=1
p355
VSpanish B-class submarine (page does not exist)
p356
tp357
a(V/wiki/United_States_B-class_submarine
p358
VUnited States B-class submarine
p359
tp360
a(V/wiki/Type_B_submarine
p361
VType B submarine
p362
tp363
asVB-flat
p364
(lp365
(V/wiki/B%E2%99%AD_(musical_note)
p366
VB\u266d (musical note)
p367
tp368
a(V/wiki/B-flat_major
p369
VB-flat major
p370
tp371
a(V/wiki/B-flat_minor
p372
VB-flat minor
p373
tp374
a(V/wiki/B-flat_(jazz_club)
p375
VB-flat (jazz club)
p376
tp377
asVB-girl (disambiguation)
p378
(lp379
(V/wiki/Bargirl
p380
VBargirl
p381
tp382
a(V/wiki/Breakdancing
p383
VBreakdancing
p384
tp385
a(V/wiki/B-Girl
p386
VB-Girl
p387
tp388
asVB-mode
p389
(lp390
(V/wiki/Medical_ultrasonography#Modes_of_sonography
p391
VMedical ultrasonography
p392
tp393
a(V/wiki/B-modes
p394
VB-modes
p395
tp396
asVB-Side Collection
p397
(lp398
(V/wiki/B-Side_Collection_(Harem_Scarem_album)
p399
VB-Side Collection (Harem Scarem album)
p400
tp401
a(V/wiki/The_B-Side_Collection
p402
VThe B-Side Collection
p403
tp404
a(V/wiki/B-Sides_Collection_(Spiderbait_album)
p405
VB-Sides Collection (Spiderbait album)
p406
tp407
a(V/wiki/Gomez_(band)
p408
VGomez (band)
p409
tp410
a(V/wiki/Mariko_Kouda
p411
VMariko Kouda
p412
tp413
asVB-Sides
p414
(lp415
(V/wiki/B-side
p416
VB-side
p417
tp418
a(V/wiki/B-Side_(EP)
p419
VB-Side (EP)
p420
tp421
a(V/wiki/B-Sides_(The_Enemy_album)
p422
VB-Sides (The Enemy album)
p423
tp424
a(V/wiki/B-Sides_(Helix_album)
p425
VB-Sides (Helix album)
p426
tp427
a(V/wiki/B-Sides_(Danko_Jones_album)
p428
VB-Sides (Danko Jones album)
p429
tp430
a(V/wiki/B-Sides_(Avril_Lavigne_album)
p431
VB-Sides (Avril Lavigne album)
p432
tp433
a(V/wiki/B-Side_(album)
p434
VB-Side (album)
p435
tp436
a(V/wiki/B-Sides_(Pin-Up_Went_Down_EP)
p437
VB-Sides (Pin-Up Went Down EP)
p438
tp439
a(V/wiki/B-Sides_(Damien_Rice_album)
p440
VB-Sides (Damien Rice album)
p441
tp442
a(V/wiki/B-Sides_(Slade_album)
p443
VB-Sides (Slade album)
p444
tp445
a(V/wiki/B-Sides_(Smile_Empty_Soul_EP)
p446
VB-Sides (Smile Empty Soul EP)
p447
tp448
a(V/wiki/B-Sides_(G-Eazy_EP)
p449
VB-Sides (G-Eazy EP)
p450
tp451
asVB-Sides and Rarities
p452
(lp453
(V/wiki/B_Sides_and_Rarities_(Andy_Williams_album)
p454
VB Sides and Rarities (Andy Williams album)
p455
tp456
a(V/wiki/B-Sides_and_Rarities_(Beach_House_album)
p457
VB-Sides and Rarities (Beach House album)
p458
tp459
a(V/wiki/B-Sides_%26_Rarities_(Boyzone_album)
p460
VB-Sides & Rarities (Boyzone album)
p461
tp462
a(V/wiki/B-Sides_%26_Rarities_(CKY_album)
p463
VB-Sides & Rarities (CKY album)
p464
tp465
a(V/wiki/B-Sides_%26_Rarities_(The_Format_album)
p466
VB-Sides & Rarities (The Format album)
p467
tp468
a(V/wiki/B-Sides_%26_Rarities_(Nick_Cave_%26_the_Bad_Seeds_album)
p469
VB-Sides & Rarities (Nick Cave & the Bad Seeds album)
p470
tp471
a(V/wiki/B-Sides_%26_Rarities_(Deftones_album)
p472
VB-Sides & Rarities (Deftones album)
p473
tp474
a(V/wiki/B-Sides_%26_Rarities_(Seven_Mary_Three_album)
p475
VB-Sides & Rarities (Seven Mary Three album)
p476
tp477
a(V/wiki/B-Sides_and_Rarities_(Cake_album)
p478
VB-Sides and Rarities (Cake album)
p479
tp480
a(V/w/index.php?title=B-Sides_%26_Rarities_(Sounds_Good_Feels_Good_album)&action=edit&redlink=1
p481
VB-Sides & Rarities (Sounds Good Feels Good album) (page does not exist)
p482
tp483
asVB-value
p484
(lp485
(V/wiki/B-factor
p486
VB-factor
p487
tp488
a(V/wiki/Gutenberg%E2%80%93Richter_law
p489
VGutenberg\u2013Richter law
p490
tp491
a(V/wiki/Diffusion_MRI
p492
VDiffusion MRI
p493
tp494
asVB. acaulis
p495
(lp496
(V/w/index.php?title=Brassavola_acaulis&action=edit&redlink=1
p497
VBrassavola acaulis (page does not exist)
p498
tp499
a(V/w/index.php?title=Brunoniella_acaulis&action=edit&redlink=1
p500
VBrunoniella acaulis (page does not exist)
p501
tp502
asVB. africana
p503
(lp504
(V/wiki/Burkea_africana
p505
VBurkea africana
p506
tp507
a(V/wiki/Bainella_africana
p508
VBainella africana
p509
tp510
asVB. africanus
p511
(lp512
(V/wiki/Bubo_africanus
p513
VBubo africanus
p514
tp515
a(V/wiki/Buphagus_africanus
p516
VBuphagus africanus
p517
tp518
asVB. alba
p519
(lp520
(V/wiki/Baptisia_alba
p521
VBaptisia alba
p522
tp523
a(V/wiki/Basella_alba
p524
VBasella alba
p525
tp526
a(V/wiki/Bidens_alba
p527
VBidens alba
p528
tp529
a(V/wiki/Bryonia_alba
p530
VBryonia alba
p531
tp532
asVB. americanus
p533
(lp534
(V/w/index.php?title=Berthellina_americanus&action=edit&redlink=1
p535
VBerthellina americanus (page does not exist)
p536
tp537
a(V/wiki/Bos_americanus
p538
VBos americanus
p539
tp540
a(V/wiki/Bufo_americanus
p541
VBufo americanus
p542
tp543
asVB. andrewi
p544
(lp545
(V/wiki/Brachypelma_andrewi
p546
VBrachypelma andrewi
p547
tp548
asVB. andrewsi
p549
(lp550
(V/wiki/Bufo_andrewsi
p551
VBufo andrewsi
p552
tp553
a(V/wiki/Bunomys_andrewsi
p554
VBunomys andrewsi
p555
tp556
asVB. arborea
p557
(lp558
(V/wiki/Banksia_arborea
p559
VBanksia arborea
p560
tp561
a(V/wiki/Brugmansia_arborea
p562
VBrugmansia arborea
p563
tp564
a(V/wiki/Bulnesia_arborea
p565
VBulnesia arborea
p566
tp567
asVB. armata
p568
(lp569
(V/wiki/Banksia_armata
p570
VBanksia armata
p571
tp572
a(V/wiki/Brahea_armata
p573
VBrahea armata
p574
tp575
asVB. arvensis
p576
(lp577
(V/wiki/Bromus_arvensis
p578
VBromus arvensis
p579
tp580
a(V/wiki/Buglossoides_arvensis
p581
VBuglossoides arvensis
p582
tp583
asVB. asiatica
p584
(lp585
(V/wiki/Barringtonia_asiatica
p586
VBarringtonia asiatica
p587
tp588
a(V/wiki/Buddleja_asiatica
p589
VBuddleja asiatica
p590
tp591
asVB. aurea
p592
(lp593
(V/wiki/Bartonia_aurea
p594
VBartonia aurea
p595
tp596
a(V/wiki/Bellastraea_aurea
p597
VBellastraea aurea
p598
tp599
a(V/w/index.php?title=Blakistonia_aurea&action=edit&redlink=1
p600
VBlakistonia aurea (page does not exist)
p601
tp602
a(V/wiki/Brugmansia_aurea
p603
VBrugmansia aurea
p604
tp605
asVB. australis
p606
(lp607
(V/wiki/Baptisia_australis
p608
VBaptisia australis
p609
tp610
a(V/wiki/Barbosella_australis
p611
VBarbosella australis
p612
tp613
a(V/wiki/Brunonia_australis
p614
VBrunonia australis
p615
tp616
a(V/wiki/Botryosphaeria_australis
p617
VBotryosphaeria australis
p618
tp619
asVB. balansae
p620
(lp621
(V/wiki/Balanops_balansae
p622
VBalanops balansae
p623
tp624
a(V/wiki/Bromelia_balansae
p625
VBromelia balansae
p626
tp627
asVB. bidentata
p628
(lp629
(V/w/index.php?title=Bauhinia_bidentata&action=edit&redlink=1
p630
VBauhinia bidentata (page does not exist)
p631
tp632
a(V/w/index.php?title=Bayadera_bidentata&action=edit&redlink=1
p633
VBayadera bidentata (page does not exist)
p634
tp635
a(V/wiki/Bertula_bidentata
p636
VBertula bidentata
p637
tp638
asVB. bigelovii
p639
(lp640
(V/wiki/Baccharis_bigelovii
p641
VBaccharis bigelovii
p642
tp643
a(V/wiki/Bahia_bigelovii
p644
VBahia bigelovii
p645
tp646
a(V/wiki/Bidens_bigelovii
p647
VBidens bigelovii
p648
tp649
a(V/wiki/Brandegea_bigelovii
p650
VBrandegea bigelovii
p651
tp652
asVB. californica
p653
(lp654
(V/wiki/Banksula_californica
p655
VBanksula californica
p656
tp657
a(V/wiki/Bolandra_californica
p658
VBolandra californica
p659
tp660
a(V/wiki/Brickellia_californica
p661
VBrickellia californica
p662
tp663
a(V/wiki/Brodiaea_californica
p664
VBrodiaea californica
p665
tp666
asVB. celebensis
p667
(lp668
(V/wiki/Babyrousa_celebensis
p669
VBabyrousa celebensis
p670
tp671
a(V/wiki/Basilornis_celebensis
p672
VBasilornis celebensis
p673
tp674
a(V/w/index.php?title=Bonthainia_celebensis&action=edit&redlink=1
p675
VBonthainia celebensis (page does not exist)
p676
tp677
asVB. chinense
p678
(lp679
(V/wiki/Bulbophyllum_chinense
p680
VBulbophyllum chinense
p681
tp682
a(V/wiki/Bupleurum_chinense
p683
VBupleurum chinense
p684
tp685
asVB. cinnabarina
p686
(lp687
(V/wiki/Baptodoris_cinnabarina
p688
VBaptodoris cinnabarina
p689
tp690
a(V/wiki/Brassia_cinnabarina
p691
VBrassia cinnabarina
p692
tp693
asVB. concinna
p694
(lp695
(V/wiki/Baissea_concinna
p696
VBaissea concinna
p697
tp698
a(V/wiki/Banksia_concinna
p699
VBanksia concinna
p700
tp701
a(V/w/index.php?title=Bilyaxia_concinna&action=edit&redlink=1
p702
VBilyaxia concinna (page does not exist)
p703
tp704
a(V/w/index.php?title=Bossiaea_concinna&action=edit&redlink=1
p705
VBossiaea concinna (page does not exist)
p706
tp707
a(V/w/index.php?title=Bulbine_concinna&action=edit&redlink=1
p708
VBulbine concinna (page does not exist)
p709
tp710
a(V/w/index.php?title=Buprestis_concinna&action=edit&redlink=1
p711
VBuprestis concinna (page does not exist)
p712
tp713
a(V/w/index.php?title=Bursa_concinna&action=edit&redlink=1
p714
VBursa concinna (page does not exist)
p715
tp716
asVB. cornutus
p717
(lp718
(V/wiki/Barbicambarus_cornutus
p719
VBarbicambarus cornutus
p720
tp721
a(V/wiki/Batrachostomus_cornutus
p722
VBatrachostomus cornutus
p723
tp724
a(V/wiki/Bombus_cornutus
p725
VBombus cornutus
p726
tp727
a(V/wiki/Bostrychoplites_cornutus
p728
VBostrychoplites cornutus
p729
tp730
asVB. crassifolia
p731
(lp732
(V/wiki/Barbosella_crassifolia
p733
VBarbosella crassifolia
p734
tp735
a(V/wiki/Beauprea_crassifolia
p736
VBeauprea crassifolia
p737
tp738
a(V/wiki/Bergenia_crassifolia
p739
VBergenia crassifolia
p740
tp741
a(V/wiki/Byrsonima_crassifolia
p742
VByrsonima crassifolia
p743
tp744
asVB. crispa
p745
(lp746
(V/wiki/Boettgeria_crispa
p747
VBoettgeria crispa
p748
tp749
a(V/wiki/Buddleja_crispa
p750
VBuddleja crispa
p751
tp752
a(V/w/index.php?title=Byrsonima_crispa&action=edit&redlink=1
p753
VByrsonima crispa (page does not exist)
p754
tp755
asVB. crocea
p756
(lp757
(V/wiki/Bertholdia_crocea
p758
VBertholdia crocea
p759
tp760
a(V/wiki/Bloomeria_crocea
p761
VBloomeria crocea
p762
tp763
a(V/w/index.php?title=Bomarea_crocea&action=edit&redlink=1
p764
VBomarea crocea (page does not exist)
p765
tp766
a(V/w/index.php?title=Bulbine_crocea&action=edit&redlink=1
p767
VBulbine crocea (page does not exist)
p768
tp769
asVB. cylindrica
p770
(lp771
(V/wiki/Babella_cylindrica
p772
VBabella cylindrica
p773
tp774
a(V/wiki/Boehmeria_cylindrica
p775
VBoehmeria cylindrica
p776
tp777
a(V/wiki/Brephulopsis_cylindrica
p778
VBrephulopsis cylindrica
p779
tp780
a(V/wiki/Bruguiera_cylindrica
p781
VBruguiera cylindrica
p782
tp783
a(V/wiki/Bythinella_cylindrica
p784
VBythinella cylindrica
p785
tp786
asVB. darwini
p787
(lp788
(V/wiki/Berthelinia_darwini
p789
VBerthelinia darwini
p790
tp791
a(V/wiki/Boursinidia_darwini
p792
VBoursinidia darwini
p793
tp794
a(V/w/index.php?title=Brachyleon_darwini&action=edit&redlink=1
p795
VBrachyleon darwini (page does not exist)
p796
tp797
a(V/wiki/Bulimulus_darwini
p798
VBulimulus darwini
p799
tp800
asVB. darwinii
p801
(lp802
(V/w/index.php?title=Baccharis_darwinii&action=edit&redlink=1
p803
VBaccharis darwinii (page does not exist)
p804
tp805
a(V/wiki/Berberis_darwinii
p806
VBerberis darwinii
p807
tp808
a(V/w/index.php?title=Botryocladia_darwinii&action=edit&redlink=1
p809
VBotryocladia darwinii (page does not exist)
p810
tp811
asVB. densifolia
p812
(lp813
(V/wiki/Babingtonia_densifolia
p814
VBabingtonia densifolia
p815
tp816
a(V/w/index.php?title=Berkheya_densifolia&action=edit&redlink=1
p817
VBerkheya densifolia (page does not exist)
p818
tp819
a(V/wiki/Brunfelsia_densifolia
p820
VBrunfelsia densifolia
p821
tp822
asVB. diffusa
p823
(lp824
(V/wiki/Boerhavia_diffusa
p825
VBoerhavia diffusa
p826
tp827
a(V/wiki/Buddleja_diffusa
p828
VBuddleja diffusa
p829
tp830
asVB. edulis
p831
(lp832
(V/wiki/Bambusa_edulis
p833
VBambusa edulis
p834
tp835
a(V/wiki/Boletus_edulis
p836
VBoletus edulis
p837
tp838
a(V/wiki/Brahea_edulis
p839
VBrahea edulis
p840
tp841
asVB. ehrenbergii
p842
(lp843
(V/w/index.php?title=Barbula_ehrenbergii&action=edit&redlink=1
p844
VBarbula ehrenbergii (page does not exist)
p845
tp846
a(V/w/index.php?title=Bartlettina_ehrenbergii&action=edit&redlink=1
p847
VBartlettina ehrenbergii (page does not exist)
p848
tp849
a(V/wiki/Brachistosternus_ehrenbergii
p850
VBrachistosternus ehrenbergii
p851
tp852
asVB. elegans
p853
(lp854
(V/wiki/Bailiaspis_elegans
p855
VBailiaspis elegans
p856
tp857
a(V/wiki/Bajaichthys_elegans
p858
VBajaichthys elegans
p859
tp860
a(V/wiki/Balacra_elegans
p861
VBalacra elegans
p862
tp863
a(V/wiki/Banksia_elegans
p864
VBanksia elegans
p865
tp866
a(V/wiki/Bathyporeia_elegans
p867
VBathyporeia elegans
p868
tp869
a(V/wiki/Beaufortia_elegans
p870
VBeaufortia elegans
p871
tp872
a(V/wiki/Bero_elegans
p873
VBero elegans
p874
tp875
a(V/wiki/Birkenia_elegans
p876
VBirkenia elegans
p877
tp878
a(V/wiki/Bomarea_elegans
p879
VBomarea elegans
p880
tp881
a(V/wiki/Bonamia_elegans
p882
VBonamia elegans
p883
tp884
a(V/wiki/Bothriospila_elegans
p885
VBothriospila elegans
p886
tp887
a(V/wiki/Botryllus_elegans
p888
VBotryllus elegans
p889
tp890
a(V/wiki/Brachinus_elegans
p891
VBrachinus elegans
p892
tp893
a(V/wiki/Breynia_elegans
p894
VBreynia elegans
p895
tp896
a(V/wiki/Brodiaea_elegans
p897
VBrodiaea elegans
p898
tp899
a(V/wiki/Bufonaria_elegans
p900
VBufonaria elegans
p901
tp902
asVB. erectum
p903
(lp904
(V/wiki/Brachyelytrum
p905
VBrachyelytrum
p906
tp907
a(V/wiki/Bulbophyllum_erectum
p908
VBulbophyllum erectum
p909
tp910
asVB. exigua
p911
(lp912
(V/w/index.php?title=Balearica_exigua&action=edit&redlink=1
p913
VBalearica exigua (page does not exist)
p914
tp915
a(V/wiki/Boa_exigua
p916
VBoa exigua
p917
tp918
a(V/wiki/Bolbula_exigua
p919
VBolbula exigua
p920
tp921
a(V/wiki/Brocchinia_exigua
p922
VBrocchinia exigua
p923
tp924
a(V/w/index.php?title=Bromelia_exigua&action=edit&redlink=1
p925
VBromelia exigua (page does not exist)
p926
tp927
asVB. flavescens
p928
(lp929
(V/wiki/Bachia_flavescens
p930
VBachia flavescens
p931
tp932
a(V/wiki/Baritius_flavescens
p933
VBaritius flavescens
p934
tp935
a(V/wiki/Bembicium_flavescens
p936
VBembicium flavescens
p937
tp938
a(V/w/index.php?title=Bembix_flavescens&action=edit&redlink=1
p939
VBembix flavescens (page does not exist)
p940
tp941
a(V/wiki/Berchemia_flavescens
p942
VBerchemia flavescens
p943
tp944
a(V/w/index.php?title=Bittacus_flavescens&action=edit&redlink=1
p945
VBittacus flavescens (page does not exist)
p946
tp947
a(V/wiki/Boissonneaua_flavescens
p948
VBoissonneaua flavescens
p949
tp950
a(V/w/index.php?title=Bombus_flavescens&action=edit&redlink=1
p951
VBombus flavescens (page does not exist)
p952
tp953
a(V/wiki/Brachodes_flavescens
p954
VBrachodes flavescens
p955
tp956
a(V/wiki/Brachyopa_flavescens
p957
VBrachyopa flavescens
p958
tp959
a(V/wiki/Bulbophyllum_flavescens
p960
VBulbophyllum flavescens
p961
tp962
asVB. floribunda
p963
(lp964
(V/w/index.php?title=Bacopa_floribunda&action=edit&redlink=1
p965
VBacopa floribunda (page does not exist)
p966
tp967
a(V/w/index.php?title=Baeckea_floribunda&action=edit&redlink=1
p968
VBaeckea floribunda (page does not exist)
p969
tp970
a(V/w/index.php?title=Baissea_floribunda&action=edit&redlink=1
p971
VBaissea floribunda (page does not exist)
p972
tp973
a(V/w/index.php?title=Berberis_floribunda&action=edit&redlink=1
p974
VBerberis floribunda (page does not exist)
p975
tp976
a(V/w/index.php?title=Billardiera_floribunda&action=edit&redlink=1
p977
VBillardiera floribunda (page does not exist)
p978
tp979
a(V/w/index.php?title=Brachystegia_floribunda&action=edit&redlink=1
p980
VBrachystegia floribunda (page does not exist)
p981
tp982
a(V/wiki/Buddleja_floribunda
p983
VBuddleja floribunda
p984
tp985
asVB. foliata
p986
(lp987
(V/w/index.php?title=Barbatia_foliata&action=edit&redlink=1
p988
VBarbatia foliata (page does not exist)
p989
tp990
a(V/wiki/Bufonaria_foliata
p991
VBufonaria foliata
p992
tp993
asVB. formosa
p994
(lp995
(V/wiki/Banksia_formosa
p996
VBanksia formosa
p997
tp998
a(V/w/index.php?title=Belvosia_formosa&action=edit&redlink=1
p999
VBelvosia formosa (page does not exist)
p1000
tp1001
a(V/wiki/Bematistes_formosa
p1002
VBematistes formosa
p1003
tp1004
a(V/wiki/Billbergia_formosa
p1005
VBillbergia formosa
p1006
tp1007
a(V/wiki/Bucculatrix_formosa
p1008
VBucculatrix formosa
p1009
tp1010
a(V/wiki/Burmeistera_formosa
p1011
VBurmeistera formosa
p1012
tp1013
asVB. fulgida
p1014
(lp1015
(V/w/index.php?title=Blackburnia_fulgida&action=edit&redlink=1
p1016
VBlackburnia fulgida (page does not exist)
p1017
tp1018
a(V/wiki/Brocadia_fulgida
p1019
VBrocadia fulgida
p1020
tp1021
asVB. gardneri
p1022
(lp1023
(V/wiki/Banksia_gardneri
p1024
VBanksia gardneri
p1025
tp1026
a(V/wiki/Barbosella_gardneri
p1027
VBarbosella gardneri
p1028
tp1029
asVB. giganteus
p1030
(lp1031
(V/wiki/Bathynomus_giganteus
p1032
VBathynomus giganteus
p1033
tp1034
a(V/wiki/Blaberus_giganteus
p1035
VBlaberus giganteus
p1036
tp1037
a(V/wiki/Brachystephanus_giganteus
p1038
VBrachystephanus giganteus
p1039
tp1040
a(V/wiki/Burhinus_giganteus
p1041
VBurhinus giganteus
p1042
tp1043
asVB. Goldstein
p1044
(lp1045
(V/wiki/Baruch_Goldstein
p1046
VBaruch Goldstein
p1047
tp1048
a(V/wiki/Bernard_R._Goldstein
p1049
VBernard R. Goldstein
p1050
tp1051
a(V/wiki/Boris_Goldstein
p1052
VBoris Goldstein
p1053
tp1054
a(V/wiki/Bruce_Goldstein
p1055
VBruce Goldstein
p1056
tp1057
asVB. gouldii
p1058
(lp1059
(V/w/index.php?title=Breviceps_gouldii&action=edit&redlink=1
p1060
VBreviceps gouldii (page does not exist)
p1061
tp1062
a(V/wiki/Buccinum_gouldii
p1063
VBuccinum gouldii
p1064
tp1065
asVB. gracilis
p1066
(lp1067
(V/w/index.php?title=Bacteroides_gracilis&action=edit&redlink=1
p1068
VBacteroides gracilis (page does not exist)
p1069
tp1070
a(V/w/index.php?title=Barbilophozia_gracilis&action=edit&redlink=1
p1071
VBarbilophozia gracilis (page does not exist)
p1072
tp1073
a(V/wiki/Bathysauropsis_gracilis
p1074
VBathysauropsis gracilis
p1075
tp1076
a(V/wiki/Belonolaimus_gracilis
p1077
VBelonolaimus gracilis
p1078
tp1079
a(V/wiki/Bletia_gracilis
p1080
VBletia gracilis
p1081
tp1082
a(V/wiki/Bolitoglossa_gracilis
p1083
VBolitoglossa gracilis
p1084
tp1085
a(V/wiki/Bomarea_gracilis
p1086
VBomarea gracilis
p1087
tp1088
a(V/wiki/Bouteloua_gracilis
p1089
VBouteloua gracilis
p1090
tp1091
a(V/wiki/Brunneria_gracilis
p1092
VBrunneria gracilis
p1093
tp1094
asVB. grandiflora
p1095
(lp1096
(V/wiki/Brunfelsia_grandiflora
p1097
VBrunfelsia grandiflora
p1098
tp1099
a(V/wiki/Bonamia_elegans
p1100
VBonamia elegans
p1101
tp1102
asVB. grandis
p1103
(lp1104
(V/wiki/Baeckea_grandis
p1105
VBaeckea grandis
p1106
tp1107
a(V/wiki/Banksia_grandis
p1108
VBanksia grandis
p1109
tp1110
a(V/wiki/Beishanlong_grandis
p1111
VBeishanlong grandis
p1112
tp1113
a(V/w/index.php?title=Boehmeria_grandis&action=edit&redlink=1
p1114
VBoehmeria grandis (page does not exist)
p1115
tp1116
a(V/w/index.php?title=Buchenavia_grandis&action=edit&redlink=1
p1117
VBuchenavia grandis (page does not exist)
p1118
tp1119
asVB. graveolens
p1120
(lp1121
(V/wiki/Bulbophyllum_graveolens
p1122
VBulbophyllum graveolens
p1123
tp1124
a(V/wiki/Bursera_graveolens
p1125
VBursera graveolens
p1126
tp1127
asVB. indica
p1128
(lp1129
(V/wiki/Bandicota_indica
p1130
VBandicota indica
p1131
tp1132
asVB. indicus
p1133
(lp1134
(V/wiki/Belonostomus_indicus
p1135
VBelonostomus indicus
p1136
tp1137
a(V/wiki/Bos_indicus
p1138
VBos indicus
p1139
tp1140
a(V/wiki/Burhinus_indicus
p1141
VBurhinus indicus
p1142
tp1143
a(V/wiki/Butastur_indicus
p1144
VButastur indicus
p1145
tp1146
asVB. intermedia
p1147
(lp1148
(V/wiki/Beaufortia_intermedia
p1149
VBeaufortia intermedia
p1150
tp1151
a(V/wiki/Belgrandiella_intermedia
p1152
VBelgrandiella intermedia
p1153
tp1154
a(V/wiki/Boerhavia_intermedia
p1155
VBoerhavia intermedia
p1156
tp1157
a(V/wiki/Brachytarsophrys_intermedia
p1158
VBrachytarsophrys intermedia
p1159
tp1160
a(V/wiki/Bythinella_intermedia
p1161
VBythinella intermedia
p1162
tp1163
asVB. J. Daniels
p1164
(lp1165
(V/wiki/B._J._Daniels_(writer)
p1166
VB. J. Daniels (writer)
p1167
tp1168
a(V/wiki/B._J._Daniels_(American_football)
p1169
VB. J. Daniels (American football)
p1170
tp1171
asVB. J. Sams
p1172
(lp1173
(V/wiki/B._J._Sams_(American_football)
p1174
VB. J. Sams (American football)
p1175
tp1176
a(V/wiki/B._J._Sams_(television)
p1177
VB. J. Sams (television)
p1178
tp1179
asVB. J. Young
p1180
(lp1181
(V/wiki/B._J._Young_(ice_hockey)
p1182
VB. J. Young (ice hockey)
p1183
tp1184
a(V/wiki/B._J._Young_(basketball)
p1185
VB. J. Young (basketball)
p1186
tp1187
asVB. japonica
p1188
(lp1189
(V/wiki/Balanophora_japonica
p1190
VBalanophora japonica
p1191
tp1192
a(V/wiki/Barnardia_japonica
p1193
VBarnardia japonica
p1194
tp1195
a(V/w/index.php?title=Blera_japonica&action=edit&redlink=1
p1196
VBlera japonica (page does not exist)
p1197
tp1198
a(V/wiki/Bombycilla_japonica
p1199
VBombycilla japonica
p1200
tp1201
a(V/wiki/Buddleja_japonica
p1202
VBuddleja japonica
p1203
tp1204
a(V/wiki/Buergeria_japonica
p1205
VBuergeria japonica
p1206
tp1207
asVB. japonicum
p1208
(lp1209
(V/wiki/Blepharisma_japonicum
p1210
VBlepharisma japonicum
p1211
tp1212
a(V/wiki/Bradyrhizobium_japonicum
p1213
VBradyrhizobium japonicum
p1214
tp1215
a(V/wiki/Bulbophyllum_japonicum
p1216
VBulbophyllum japonicum
p1217
tp1218
asVB. juncea
p1219
(lp1220
(V/w/index.php?title=Baccharis_juncea&action=edit&redlink=1
p1221
VBaccharis juncea (page does not exist)
p1222
tp1223
a(V/wiki/Baumea_juncea
p1224
VBaumea juncea
p1225
tp1226
a(V/wiki/Bebbia_juncea
p1227
VBebbia juncea
p1228
tp1229
a(V/wiki/Belonogaster_juncea
p1230
VBelonogaster juncea
p1231
tp1232
a(V/w/index.php?title=Bouteloua_juncea&action=edit&redlink=1
p1233
VBouteloua juncea (page does not exist)
p1234
tp1235
a(V/wiki/Brassica_juncea
p1236
VBrassica juncea
p1237
tp1238
asVB. laeta
p1239
(lp1240
(V/wiki/Brachodes_laeta
p1241
VBrachodes laeta
p1242
tp1243
a(V/wiki/Buprestis_laeta
p1244
VBuprestis laeta
p1245
tp1246
asVB. laevis
p1247
(lp1248
(V/w/index.php?title=Balanus_laevis&action=edit&redlink=1
p1249
VBalanus laevis (page does not exist)
p1250
tp1251
a(V/wiki/Barbichthys_laevis
p1252
VBarbichthys laevis
p1253
tp1254
a(V/wiki/Bidens_laevis
p1255
VBidens laevis
p1256
tp1257
asVB. lepidus
p1258
(lp1259
(V/w/index.php?title=Bombus_lepidus&action=edit&redlink=1
p1260
VBombus lepidus (page does not exist)
p1261
tp1262
a(V/w/index.php?title=Bromus_lepidus&action=edit&redlink=1
p1263
VBromus lepidus (page does not exist)
p1264
tp1265
asVB. lutea
p1266
(lp1267
(V/w/index.php?title=Banisteriopsis_lutea&action=edit&redlink=1
p1268
VBanisteriopsis lutea (page does not exist)
p1269
tp1270
a(V/wiki/Beatonia_lutea
p1271
VBeatonia lutea
p1272
tp1273
a(V/w/index.php?title=Besleria_lutea&action=edit&redlink=1
p1274
VBesleria lutea (page does not exist)
p1275
tp1276
a(V/wiki/Betula_lutea
p1277
VBetula lutea
p1278
tp1279
a(V/w/index.php?title=Blepharoneura_lutea&action=edit&redlink=1
p1280
VBlepharoneura lutea (page does not exist)
p1281
tp1282
a(V/wiki/Bomarea_lutea
p1283
VBomarea lutea
p1284
tp1285
a(V/wiki/Borsonia_lutea
p1286
VBorsonia lutea
p1287
tp1288
a(V/w/index.php?title=Botryosphaeria_lutea&action=edit&redlink=1
p1289
VBotryosphaeria lutea (page does not exist)
p1290
tp1291
a(V/wiki/Brodiaea_lutea
p1292
VBrodiaea lutea
p1293
tp1294
a(V/w/index.php?title=Brontypena_lutea&action=edit&redlink=1
p1295
VBrontypena lutea (page does not exist)
p1296
tp1297
a(V/wiki/Brugmansia_lutea
p1298
VBrugmansia lutea
p1299
tp1300
asVB. macrophylla
p1301
(lp1302
(V/wiki/Bistorta_macrophylla
p1303
VBistorta macrophylla
p1304
tp1305
a(V/wiki/Bouea_macrophylla
p1306
VBouea macrophylla
p1307
tp1308
asVB. maculata
p1309
(lp1310
(V/w/index.php?title=Badumna_maculata&action=edit&redlink=1
p1311
VBadumna maculata (page does not exist)
p1312
tp1313
a(V/wiki/Balionycteris_maculata
p1314
VBalionycteris maculata
p1315
tp1316
a(V/w/index.php?title=Bambusa_maculata&action=edit&redlink=1
p1317
VBambusa maculata (page does not exist)
p1318
tp1319
a(V/wiki/Barygenys_maculata
p1320
VBarygenys maculata
p1321
tp1322
a(V/wiki/Bathyraja_maculata
p1323
VBathyraja maculata
p1324
tp1325
a(V/wiki/Belone_maculata
p1326
VBelone maculata
p1327
tp1328
a(V/w/index.php?title=Belonogaster_maculata&action=edit&redlink=1
p1329
VBelonogaster maculata (page does not exist)
p1330
tp1331
a(V/w/index.php?title=Bertolonia_maculata&action=edit&redlink=1
p1332
VBertolonia maculata (page does not exist)
p1333
tp1334
a(V/w/index.php?title=Bicalcasura_maculata&action=edit&redlink=1
p1335
VBicalcasura maculata (page does not exist)
p1336
tp1337
a(V/w/index.php?title=Biceropsis_maculata&action=edit&redlink=1
p1338
VBiceropsis maculata (page does not exist)
p1339
tp1340
a(V/w/index.php?title=Blackburnia_maculata&action=edit&redlink=1
p1341
VBlackburnia maculata (page does not exist)
p1342
tp1343
a(V/w/index.php?title=Boiruna_maculata&action=edit&redlink=1
p1344
VBoiruna maculata (page does not exist)
p1345
tp1346
a(V/w/index.php?title=Boulengerella_maculata&action=edit&redlink=1
p1347
VBoulengerella maculata (page does not exist)
p1348
tp1349
a(V/w/index.php?title=Brachichila_maculata&action=edit&redlink=1
p1350
VBrachichila maculata (page does not exist)
p1351
tp1352
a(V/wiki/Brahmaea_maculata
p1353
VBrahmaea maculata
p1354
tp1355
a(V/wiki/Brassia_maculata
p1356
VBrassia maculata
p1357
tp1358
a(V/w/index.php?title=Brownleea_maculata&action=edit&redlink=1
p1359
VBrownleea maculata (page does not exist)
p1360
tp1361
a(V/wiki/Burlingtonia_maculata
p1362
VBurlingtonia maculata
p1363
tp1364
asVB. malayanus
p1365
(lp1366
(V/w/index.php?title=Bathysauropsis_malayanus&action=edit&redlink=1
p1367
VBathysauropsis malayanus (page does not exist)
p1368
tp1369
a(V/w/index.php?title=Beloniscus_malayanus&action=edit&redlink=1
p1370
VBeloniscus malayanus (page does not exist)
p1371
tp1372
asVB. maritimus
p1373
(lp1374
(V/wiki/Bolboschoenus_maritimus
p1375
VBolboschoenus maritimus
p1376
tp1377
a(V/wiki/Bromus_maritimus
p1378
VBromus maritimus
p1379
tp1380
asVB. maxima
p1381
(lp1382
(V/wiki/Benedictia_maxima
p1383
VBenedictia maxima
p1384
tp1385
a(V/wiki/Bombina_maxima
p1386
VBombina maxima
p1387
tp1388
a(V/wiki/Brefeldia_maxima
p1389
VBrefeldia maxima
p1390
tp1391
a(V/wiki/Briza_maxima
p1392
VBriza maxima
p1393
tp1394
asVB. minutus
p1395
(lp1396
(V/wiki/Batrachylodes_minutus
p1397
VBatrachylodes minutus
p1398
tp1399
a(V/wiki/Brycinus_minutus
p1400
VBrycinus minutus
p1401
tp1402
asVB. montana
p1403
(lp1404
(V/wiki/Banksia_montana
p1405
VBanksia montana
p1406
tp1407
a(V/wiki/Belantsea_montana
p1408
VBelantsea montana
p1409
tp1410
a(V/wiki/Bigotilia_montana
p1411
VBigotilia montana
p1412
tp1413
a(V/wiki/Borboniella_montana
p1414
VBorboniella montana
p1415
tp1416
a(V/wiki/Bosara_montana
p1417
VBosara montana
p1418
tp1419
a(V/wiki/Brachychampsa_montana
p1420
VBrachychampsa montana
p1421
tp1422
a(V/wiki/Brachypteryx_montana
p1423
VBrachypteryx montana
p1424
tp1425
a(V/wiki/Bryotropha_montana
p1426
VBryotropha montana
p1427
tp1428
a(V/wiki/Bucculatrix_montana
p1429
VBucculatrix montana
p1430
tp1431
a(V/wiki/Buddleja_montana
p1432
VBuddleja montana
p1433
tp1434
asVB. montanus
p1435
(lp1436
(V/wiki/Batrachylodes_montanus
p1437
VBatrachylodes montanus
p1438
tp1439
a(V/wiki/Blennidus_montanus
p1440
VBlennidus montanus
p1441
tp1442
a(V/wiki/Buthus_montanus
p1443
VButhus montanus
p1444
tp1445
asVB. nana
p1446
(lp1447
(V/wiki/Banksia_nana
p1448
VBanksia nana
p1449
tp1450
a(V/wiki/Bantia_nana
p1451
VBantia nana
p1452
tp1453
a(V/wiki/Barygenys_nana
p1454
VBarygenys nana
p1455
tp1456
a(V/wiki/Betula_nana
p1457
VBetula nana
p1458
tp1459
a(V/wiki/Billbergia_nana
p1460
VBillbergia nana
p1461
tp1462
a(V/wiki/Boswellia_nana
p1463
VBoswellia nana
p1464
tp1465
a(V/wiki/Brachyphylla_nana
p1466
VBrachyphylla nana
p1467
tp1468
asVB. neglecta
p1469
(lp1470
(V/wiki/Bothrops_neglecta
p1471
VBothrops neglecta
p1472
tp1473
a(V/wiki/Bulbostylis_neglecta
p1474
VBulbostylis neglecta
p1475
tp1476
asVB. nepalensis
p1477
(lp1478
(V/wiki/Bellulia_nepalensis
p1479
VBellulia nepalensis
p1480
tp1481
a(V/wiki/Berberis_nepalensis
p1482
VBerberis nepalensis
p1483
tp1484
a(V/w/index.php?title=Boreoheptagyia_nepalensis&action=edit&redlink=1
p1485
VBoreoheptagyia nepalensis (page does not exist)
p1486
tp1487
a(V/w/index.php?title=Bradycellus_nepalensis&action=edit&redlink=1
p1488
VBradycellus nepalensis (page does not exist)
p1489
tp1490
asVB. nigra
p1491
(lp1492
(V/wiki/Ballota_nigra
p1493
VBallota nigra
p1494
tp1495
a(V/wiki/Betula_nigra
p1496
VBetula nigra
p1497
tp1498
a(V/wiki/Brassica_nigra
p1499
VBrassica nigra
p1500
tp1501
asVB. nitida
p1502
(lp1503
(V/wiki/Baphia_nitida
p1504
VBaphia nitida
p1505
tp1506
a(V/wiki/Bornetella_nitida
p1507
VBornetella nitida
p1508
tp1509
a(V/wiki/Buddleja_nitida
p1510
VBuddleja nitida
p1511
tp1512
asVB. nivea
p1513
(lp1514
(V/wiki/Banksia_nivea
p1515
VBanksia nivea
p1516
tp1517
a(V/wiki/Boehmeria_nivea
p1518
VBoehmeria nivea
p1519
tp1520
a(V/wiki/Buddleja_nivea
p1521
VBuddleja nivea
p1522
tp1523
asVB. nobilis
p1524
(lp1525
(V/wiki/Banksia_nobilis
p1526
VBanksia nobilis
p1527
tp1528
a(V/wiki/Bismarckia_nobilis
p1529
VBismarckia nobilis
p1530
tp1531
a(V/wiki/Bombus_nobilis
p1532
VBombus nobilis
p1533
tp1534
asVB. obtusa
p1535
(lp1536
(V/wiki/Banksia_obtusa
p1537
VBanksia obtusa
p1538
tp1539
a(V/wiki/Barleria_obtusa
p1540
VBarleria obtusa
p1541
tp1542
a(V/wiki/Botryosphaeria_obtusa
p1543
VBotryosphaeria obtusa
p1544
tp1545
asVB. orientalis
p1546
(lp1547
(V/wiki/Bagrus_orientalis
p1548
VBagrus orientalis
p1549
tp1550
a(V/wiki/Bangasternus_orientalis
p1551
VBangasternus orientalis
p1552
tp1553
a(V/wiki/Batis_orientalis
p1554
VBatis orientalis
p1555
tp1556
a(V/wiki/Berlinia_orientalis
p1557
VBerlinia orientalis
p1558
tp1559
a(V/wiki/Blatta_orientalis
p1560
VBlatta orientalis
p1561
tp1562
a(V/wiki/Bolbena_orientalis
p1563
VBolbena orientalis
p1564
tp1565
a(V/wiki/Bombina_orientalis
p1566
VBombina orientalis
p1567
tp1568
a(V/w/index.php?title=Braula_orientalis&action=edit&redlink=1
p1569
VBraula orientalis (page does not exist)
p1570
tp1571
a(V/w/index.php?title=Brunnera_orientalis&action=edit&redlink=1
p1572
VBrunnera orientalis (page does not exist)
p1573
tp1574
a(V/wiki/Bunias_orientalis
p1575
VBunias orientalis
p1576
tp1577
asVB. palustris
p1578
(lp1579
(V/wiki/Brackenridgea_palustris
p1580
VBrackenridgea palustris
p1581
tp1582
a(V/wiki/Boeckella_palustris
p1583
VBoeckella palustris
p1584
tp1585
asVB. poeppigii
p1586
(lp1587
(V/w/index.php?title=Bromelia_poeppigii&action=edit&redlink=1
p1588
VBromelia poeppigii (page does not exist)
p1589
tp1590
a(V/wiki/Bufo_poeppigii
p1591
VBufo poeppigii
p1592
tp1593
asVB. polymorpha
p1594
(lp1595
(V/wiki/Bambusa_polymorpha
p1596
VBambusa polymorpha
p1597
tp1598
a(V/w/index.php?title=Bouteloua_polymorpha&action=edit&redlink=1
p1599
VBouteloua polymorpha (page does not exist)
p1600
tp1601
a(V/w/index.php?title=Bovista_polymorpha&action=edit&redlink=1
p1602
VBovista polymorpha (page does not exist)
p1603
tp1604
a(V/w/index.php?title=Bulgaria_polymorpha&action=edit&redlink=1
p1605
VBulgaria polymorpha (page does not exist)
p1606
tp1607
asVB. portoricensis
p1608
(lp1609
(V/w/index.php?title=Bolbitis_portoricensis&action=edit&redlink=1
p1610
VBolbitis portoricensis (page does not exist)
p1611
tp1612
a(V/wiki/Borikenophis_portoricensis
p1613
VBorikenophis portoricensis
p1614
tp1615
a(V/wiki/Brunfelsia_portoricensis
p1616
VBrunfelsia portoricensis
p1617
tp1618
a(V/w/index.php?title=Buxus_portoricensis&action=edit&redlink=1
p1619
VBuxus portoricensis (page does not exist)
p1620
tp1621
asVB. pulchella
p1622
(lp1623
(V/wiki/Banksia_pulchella
p1624
VBanksia pulchella
p1625
tp1626
a(V/wiki/Biplex_pulchella
p1627
VBiplex pulchella
p1628
tp1629
asVB. robusta
p1630
(lp1631
(V/wiki/Bhesa_robusta
p1632
VBhesa robusta
p1633
tp1634
a(V/wiki/Bolitoglossa_robusta
p1635
VBolitoglossa robusta
p1636
tp1637
a(V/wiki/Buergeria_robusta
p1638
VBuergeria robusta
p1639
tp1640
asVB. rosea
p1641
(lp1642
(V/wiki/Bersama_rosea
p1643
VBersama rosea
p1644
tp1645
a(V/wiki/Burlingtonia_rosea
p1646
VBurlingtonia rosea
p1647
tp1648
asVB. salicifolia
p1649
(lp1650
(V/wiki/Baccharis_salicifolia
p1651
VBaccharis salicifolia
p1652
tp1653
a(V/w/index.php?title=Boscia_salicifolia&action=edit&redlink=1
p1654
VBoscia salicifolia (page does not exist)
p1655
tp1656
asVB. spectabilis
p1657
(lp1658
(V/wiki/Barkeria_spectabilis
p1659
VBarkeria spectabilis
p1660
tp1661
a(V/wiki/Bledius_spectabilis
p1662
VBledius spectabilis
p1663
tp1664
a(V/wiki/Boerlagella_spectabilis
p1665
VBoerlagella spectabilis
p1666
tp1667
a(V/wiki/Bougainvillea_spectabilis
p1668
VBougainvillea spectabilis
p1669
tp1670
a(V/wiki/Bowenia_spectabilis
p1671
VBowenia spectabilis
p1672
tp1673
a(V/wiki/Brachychiton_spectabilis
p1674
VBrachychiton spectabilis
p1675
tp1676
a(V/wiki/Buccochromis_spectabilis
p1677
VBuccochromis spectabilis
p1678
tp1679
a(V/wiki/Bucculatrix_spectabilis
p1680
VBucculatrix spectabilis
p1681
tp1682
a(V/wiki/Burchia_spectabilis
p1683
VBurchia spectabilis
p1684
tp1685
asVB. spicata
p1686
(lp1687
(V/wiki/Banksia_spicata
p1688
VBanksia spicata
p1689
tp1690
a(V/w/index.php?title=Byrsonima_spicata&action=edit&redlink=1
p1691
VByrsonima spicata (page does not exist)
p1692
tp1693
asVB. spinosa
p1694
(lp1695
(V/w/index.php?title=Bolama_spinosa&action=edit&redlink=1
p1696
VBolama spinosa (page does not exist)
p1697
tp1698
a(V/w/index.php?title=Bonania_spinosa&action=edit&redlink=1
p1699
VBonania spinosa (page does not exist)
p1700
tp1701
a(V/wiki/Bossiaea_spinosa
p1702
VBossiaea spinosa
p1703
tp1704
a(V/wiki/Branchinella_spinosa
p1705
VBranchinella spinosa
p1706
tp1707
a(V/wiki/Bursaria_spinosa
p1708
VBursaria spinosa
p1709
tp1710
asVB. splendens
p1711
(lp1712
(V/wiki/Beryx_splendens
p1713
VBeryx splendens
p1714
tp1715
a(V/wiki/Betta_splendens
p1716
VBetta splendens
p1717
tp1718
a(V/wiki/Brochis_splendens
p1719
VBrochis splendens
p1720
tp1721
a(V/wiki/Buprestis_splendens
p1722
VBuprestis splendens
p1723
tp1724
asVB. sylvestris
p1725
(lp1726
(V/wiki/Bellis_sylvestris
p1727
VBellis sylvestris
p1728
tp1729
a(V/wiki/Bombus_sylvestris
p1730
VBombus sylvestris
p1731
tp1732
a(V/wiki/Breviceps_sylvestris
p1733
VBreviceps sylvestris
p1734
tp1735
asVB. terrestris
p1736
(lp1737
(V/wiki/Blepharospora_terrestris
p1738
VBlepharospora terrestris
p1739
tp1740
a(V/wiki/Bombus_terrestris
p1741
VBombus terrestris
p1742
tp1743
a(V/wiki/Brodiaea_terrestris
p1744
VBrodiaea terrestris
p1745
tp1746
a(V/wiki/Bufo_terrestris
p1747
VBufo terrestris
p1748
tp1749
asVB. tinctoria
p1750
(lp1751
(V/wiki/Baptisia_tinctoria
p1752
VBaptisia tinctoria
p1753
tp1754
a(V/w/index.php?title=Bergeris_tinctoria&action=edit&redlink=1
p1755
VBergeris tinctoria (page does not exist)
p1756
tp1757
a(V/w/index.php?title=Broussonitia_tinctoria&action=edit&redlink=1
p1758
VBroussonitia tinctoria (page does not exist)
p1759
tp1760
asVB. tricolor
p1761
(lp1762
(V/wiki/Bedotia_tricolor
p1763
VBedotia tricolor
p1764
tp1765
a(V/wiki/Bulbophyllum_tricolor
p1766
VBulbophyllum tricolor
p1767
tp1768
asVB. truncatus
p1769
(lp1770
(V/wiki/Bulinus_truncatus
p1771
VBulinus truncatus
p1772
tp1773
a(V/wiki/Boreotrophon_truncatus
p1774
VBoreotrophon truncatus
p1775
tp1776
asVB. tuberculatus
p1777
(lp1778
(V/wiki/Bottosaurus_tuberculatus
p1779
VBottosaurus tuberculatus
p1780
tp1781
a(V/w/index.php?title=Brachychiton_tuberculatus&action=edit&redlink=1
p1782
VBrachychiton tuberculatus (page does not exist)
p1783
tp1784
a(V/wiki/Bufo_tuberculatus
p1785
VBufo tuberculatus
p1786
tp1787
asVB. typica
p1788
(lp1789
(V/wiki/Ballognatha_typica
p1790
VBallognatha typica
p1791
tp1792
a(V/wiki/Berthelinia_typica
p1793
VBerthelinia typica
p1794
tp1795
asVB. vulgaris
p1796
(lp1797
(V/wiki/Bambusa_vulgaris
p1798
VBambusa vulgaris
p1799
tp1800
a(V/wiki/Barbarea_vulgaris
p1801
VBarbarea vulgaris
p1802
tp1803
a(V/wiki/Berberis_vulgaris
p1804
VBerberis vulgaris
p1805
tp1806
a(V/wiki/Beta_vulgaris
p1807
VBeta vulgaris
p1808
tp1809
a(V/wiki/Bromus_vulgaris
p1810
VBromus vulgaris
p1811
tp1812
a(V/wiki/Byblia_vulgaris
p1813
VByblia vulgaris
p1814
tp1815
asVB.A.A.S.
p1816
(lp1817
(V/wiki/British_Association_for_American_Studies
p1818
VBritish Association for American Studies
p1819
tp1820
a(V/wiki/British_Science_Association
p1821
VBritish Science Association
p1822
tp1823
asVB.F. Goodrich
p1824
(lp1825
(V/wiki/Benjamin_Goodrich
p1826
VBenjamin Goodrich
p1827
tp1828
a(V/wiki/Goodrich_Corporation
p1829
VGoodrich Corporation
p1830
tp1831
a(V/wiki/BFGoodrich
p1832
VBFGoodrich
p1833
tp1834
asVB'nai Abraham
p1835
(lp1836
(V/wiki/B%27nai_Abraham_Synagogue_(Virginia,_Minnesota)
p1837
VB'nai Abraham Synagogue (Virginia, Minnesota)
p1838
tp1839
a(V/wiki/Temple_B%27Nai_Abraham
p1840
VTemple B'Nai Abraham
p1841
tp1842
a(V/wiki/Historic_Congregation_B%27nai_Abraham
p1843
VHistoric Congregation B'nai Abraham
p1844
tp1845
a(V/wiki/B%27nai_Abraham_Synagogue_(Brenham,_Texas)
p1846
VB'nai Abraham Synagogue (Brenham, Texas)
p1847
tp1848
asVB'nai B'rith Camp
p1849
(lp1850
(V/wiki/B%27nai_B%27rith_Beber_Camp
p1851
VB'nai B'rith Beber Camp
p1852
tp1853
a(V/wiki/B%27nai_B%27rith_Perlman_Camp
p1854
VB'nai B'rith Perlman Camp
p1855
tp1856
a(V/w/index.php?title=B%E2%80%99nai_B%E2%80%99rith_Camp_(Oregon)&action=edit&redlink=1
p1857
VB\u2019nai B\u2019rith Camp (Oregon) (page does not exist)
p1858
tp1859
a(V/w/index.php?title=Camp_B%27nai_B%27rith_of_Ottawa&action=edit&redlink=1
p1860
VCamp B'nai B'rith of Ottawa (page does not exist)
p1861
tp1862
asVCamp B'nai Brith
p1863
(lp1864
(V/wiki/B%27nai_B%27rith_Beber_Camp
p1865
VB'nai B'rith Beber Camp
p1866
tp1867
a(V/wiki/Camp_B%27nai_Brith_(Montreal)
p1868
VCamp B'nai Brith (Montreal)
p1869
tp1870
a(V/wiki/Camp_B%27nai_Brith_(Ottawa)
p1871
VCamp B'nai Brith (Ottawa)
p1872
tp1873
a(V/wiki/B%27nai_B%27rith_Perlman_Camp
p1874
VB'nai B'rith Perlman Camp
p1875
tp1876
asVB'nai Israel
p1877
(lp1878
(V#Jewish_community
p1879
Ntp1880
a(V#Synagogues
p1881
Ntp1882
a(V#Canada
p1883
Ntp1884
a(V#United_States
p1885
Ntp1886
a(V#California
p1887
Ntp1888
a(V#Connecticut
p1889
Ntp1890
a(V#Georgia
p1891
Ntp1892
a(V#Illinois
p1893
Ntp1894
a(V#Indiana
p1895
Ntp1896
a(V#Iowa
p1897
Ntp1898
a(V#Louisiana
p1899
Ntp1900
a(V#Maryland
p1901
Ntp1902
a(V#Missouri
p1903
Ntp1904
a(V#New_Jersey
p1905
Ntp1906
a(V#New_York
p1907
Ntp1908
a(V#North_Dakota
p1909
Ntp1910
a(V#Ohio
p1911
Ntp1912
a(V#Oklahoma
p1913
Ntp1914
a(V#Pennsylvania
p1915
Ntp1916
a(V#Tennessee
p1917
Ntp1918
a(V#Texas
p1919
Ntp1920
a(V#Utah
p1921
Ntp1922
a(V#See_also
p1923
Ntp1924
asVB'nai Jacob
p1925
(lp1926
(V/wiki/Congregation_B%27nai_Jacob_(Woodbridge,_Connecticut)
p1927
VCongregation B'nai Jacob (Woodbridge, Connecticut)
p1928
tp1929
a(V/wiki/B%27nai_Jacob_Synagogue_(Ottumwa,_Iowa)
p1930
VB'nai Jacob Synagogue (Ottumwa, Iowa)
p1931
tp1932
a(V/wiki/B%27nai_Jacob_Synagogue_(Middletown,_Pennsylvania)
p1933
VB'nai Jacob Synagogue (Middletown, Pennsylvania)
p1934
tp1935
asVB'nai Jeshurun
p1936
(lp1937
(V/wiki/Temple_B%27nai_Jeshurun_(Demopolis,_Alabama)
p1938
VTemple B'nai Jeshurun (Demopolis, Alabama)
p1939
tp1940
a(V/wiki/Temple_of_Congregation_B%27nai_Jeshurun
p1941
VTemple of Congregation B'nai Jeshurun
p1942
tp1943
a(V/wiki/B%27nai_Jeshurun_(Manhattan,_New_York)
p1944
VB'nai Jeshurun (Manhattan, New York)
p1945
tp1946
a(V/wiki/K._K._B%27nai_Yeshurun
p1947
VK. K. B'nai Yeshurun
p1948
tp1949
a(V/wiki/Temple_Israel_(Dayton,_Ohio)
p1950
VTemple Israel (Dayton, Ohio)
p1951
tp1952
a(V/wiki/Congregation_Emanu-El_B%27ne_Jeshurun
p1953
VCongregation Emanu-El B'ne Jeshurun
p1954
tp1955
asVB&B
p1956
(lp1957
(V#Common_uses
p1958
Ntp1959
a(V#Arts,_entertainment,_and_media
p1960
Ntp1961
a(V#Television
p1962
Ntp1963
a(V#Other_uses_in_arts,_entertainment,_and_media
p1964
Ntp1965
a(V#Brands_and_enterprises
p1966
Ntp1967
a(V#Other_uses
p1968
Ntp1969
asVB&H (disambiguation)
p1970
(lp1971
(V/wiki/Bosnia_and_Herzegovina
p1972
VBosnia and Herzegovina
p1973
tp1974
a(V/wiki/Brighton_and_Hove
p1975
VBrighton and Hove
p1976
tp1977
asVB&L
p1978
(lp1979
(V/wiki/Boston_and_Lowell_Railroad
p1980
VBoston and Lowell Railroad
p1981
tp1982
a(V/wiki/Bausch_%26_Lomb
p1983
VBausch & Lomb
p1984
tp1985
asVB&M
p1986
(lp1987
(V/wiki/B_%26_M
p1988
VB & M
p1989
tp1990
a(V/wiki/Black_%26_Mild
p1991
VBlack & Mild
p1992
tp1993
a(V/wiki/Bolliger_%26_Mabillard
p1994
VBolliger & Mabillard
p1995
tp1996
a(V/wiki/Boston_and_Maine_Railroad
p1997
VBoston and Maine Railroad
p1998
tp1999
a(V/wiki/Brasil_%26_Movimento
p2000
VBrasil & Movimento
p2001
tp2002
a(V/wiki/Brick_and_mortar
p2003
VBrick and mortar
p2004
tp2005
asVB&O
p2006
(lp2007
(V/wiki/Baltimore_and_Ohio_Railroad
p2008
VBaltimore and Ohio Railroad
p2009
tp2010
a(V/wiki/Bang_%26_Olufsen
p2011
VBang & Olufsen
p2012
tp2013
a(V/wiki/Bullets_and_Octane
p2014
VBullets and Octane
p2015
tp2016
a(V/wiki/Business_and_occupation_tax
p2017
VBusiness and occupation tax
p2018
tp2019
asVB&P
p2020
(lp2021
(V/wiki/Baltimore_and_Potomac_Rail_Road
p2022
VBaltimore and Potomac Rail Road
p2023
tp2024
a(V/wiki/Boston_and_Providence_Railroad
p2025
VBoston and Providence Railroad
p2026
tp2027
a(V/w/index.php?title=Blanks_and_Postage&action=edit&redlink=1
p2028
VBlanks and Postage (page does not exist)
p2029
tp2030
a(V/wiki/Bid_and_proposal
p2031
VBid and proposal
p2032
tp2033
asVB&S
p2034
(lp2035
(V/wiki/Bachelor_and_Spinster_Balls
p2036
VBachelor and Spinster Balls
p2037
tp2038
a(V/wiki/Ball_and_socket
p2039
VBall and socket
p2040
tp2041
a(V/wiki/Ballybofey
p2042
VBallybofey
p2043
tp2044
a(V/wiki/Belle_%26_Sebastian
p2045
VBelle & Sebastian
p2046
tp2047
a(V/wiki/Charles_E._Billings
p2048
VCharles E. Billings
p2049
tp2050
a(V/wiki/Briggs_%26_Stratton
p2051
VBriggs & Stratton
p2052
tp2053
a(V/wiki/Brothers_%26_Sisters_(2006_TV_series)
p2054
VBrothers & Sisters (2006 TV series)
p2055
tp2056
a(V/wiki/Brown_%26_Sharpe
p2057
VBrown & Sharpe
p2058
tp2059
a(V/wiki/Buffalo_and_Susquehanna_Railroad
p2060
VBuffalo and Susquehanna Railroad
p2061
tp2062
a(V/wiki/Bloomsburg_and_Sullivan_Railroad
p2063
VBloomsburg and Sullivan Railroad
p2064
tp2065
asVB&W
p2066
(lp2067
(V/wiki/Babcock_%26_Wilcox
p2068
VBabcock & Wilcox
p2069
tp2070
a(V/wiki/Brown_%26_Williamson
p2071
VBrown & Williamson
p2072
tp2073
a(V/wiki/Bowers_%26_Wilkins
p2074
VBowers & Wilkins
p2075
tp2076
a(V/wiki/Bra_%26_Wessels
p2077
VBra & Wessels
p2078
tp2079
a(V/wiki/Burmeister_%26_Wain
p2080
VBurmeister & Wain
p2081
tp2082
a(V/w/index.php?title=Berrill_%26_Watson&action=edit&redlink=1
p2083
VBerrill & Watson (page does not exist)
p2084
tp2085
a(V/wiki/Boeing
p2086
VBoeing
p2087
tp2088
a(V/wiki/Schneider_Kreuznach
p2089
VSchneider Kreuznach
p2090
tp2091
asVB+
p2092
(lp2093
(V/wiki/Blood_type
p2094
VBlood type
p2095
tp2096
a(V/wiki/B%2B_(grade)
p2097
VB+ (grade)
p2098
tp2099
a(V/wiki/B%2B_(photographer)
p2100
VB+ (photographer)
p2101
tp2102
a(V/wiki/B%2B_tree
p2103
VB+ tree
p2104
tp2105
a(V/wiki/BBC_Micro#Hardware_features:_B+64_and_B+128
p2106
VBBC Micro
p2107
tp2108
a(V/wiki/Raspberry_Pi
p2109
VRaspberry Pi
p2110
tp2111
a(V/wiki/Battery_(electricity)
p2112
VBattery (electricity)
p2113
tp2114
a(V/wiki/B_Plus
p2115
VB Plus
p2116
tp2117
asVB+ decay
p2118
(lp2119
(V/wiki/Positron_emission
p2120
VPositron emission
p2121
tp2122
a(V/wiki/B_meson
p2123
VB meson
p2124
tp2125
asVB0
p2126
(lp2127
(V/wiki/B%E2%82%80
p2128
VB\u2080
p2129
tp2130
a(V/wiki/Stellar_classification
p2131
VStellar classification
p2132
tp2133
a(V/wiki/Pininfarina_B0
p2134
VPininfarina B0
p2135
tp2136
a(V/wiki/ISO_216
p2137
VISO 216
p2138
tp2139
a(V/wiki/B_meson
p2140
VB meson
p2141
tp2142
a(V/wiki/FLOW-MATIC
p2143
VFLOW-MATIC
p2144
tp2145
a(V/wiki/La_Compagnie
p2146
VLa Compagnie
p2147
tp2148
asVB1
p2149
(lp2150
(V#Biology_and_chemistry
p2151
Ntp2152
a(V#Media
p2153
Ntp2154
a(V#Roads
p2155
Ntp2156
a(V#Vehicles
p2157
Ntp2158
a(V#Other
p2159
Ntp2160
a(V#See_also
p2161
Ntp2162
asVB01
p2163
(lp2164
(V/wiki/ATC_code_B01
p2165
VATC code B01
p2166
tp2167
a(V/wiki/Center_Counter_Defense
p2168
VCenter Counter Defense
p2169
tp2170
asVB2
p2171
(lp2172
(V#Transportation
p2173
Ntp2174
a(V#Aircraft
p2175
Ntp2176
a(V#Locomotives
p2177
Ntp2178
a(V#Submarines
p2179
Ntp2180
a(V#Roads
p2181
Ntp2182
a(V#Other_transport
p2183
Ntp2184
a(V#Computing
p2185
Ntp2186
a(V#People_and_characters
p2187
Ntp2188
a(V#Visas
p2189
Ntp2190
a(V#Biology
p2191
Ntp2192
a(V#Other
p2193
Ntp2194
a(V#See_also
p2195
Ntp2196
asVB2B
p2197
(lp2198
(V/wiki/Sidecar_World_Championship
p2199
VSidecar World Championship
p2200
tp2201
a(V/wiki/Bay_to_Breakers
p2202
VBay to Breakers
p2203
tp2204
a(V/wiki/Budapest-Bamako
p2205
VBudapest-Bamako
p2206
tp2207
asVB2D
p2208
(lp2209
(V/w/index.php?title=Business-to-developer&action=edit&redlink=1
p2210
VBusiness-to-developer (page does not exist)
p2211
tp2212
a(V/wiki/Business-to-business
p2213
VBusiness-to-business
p2214
tp2215
a(V/wiki/Bipolar_II_disorder
p2216
VBipolar II disorder
p2217
tp2218
a(V/wiki/Backup-to-disk
p2219
VBackup-to-disk
p2220
tp2221
a(V/wiki/Born_to_Die
p2222
VBorn to Die
p2223
tp2224
asVB2G
p2225
(lp2226
(V/wiki/B2G_OS
p2227
VB2G OS
p2228
tp2229
a(V/wiki/Battery-to-grid
p2230
VBattery-to-grid
p2231
tp2232
a(V/wiki/Be2gether
p2233
VBe2gether
p2234
tp2235
a(V/wiki/Boot_to_Gecko
p2236
VBoot to Gecko
p2237
tp2238
a(V/wiki/Bridge_to_Grace
p2239
VBridge to Grace
p2240
tp2241
a(V/wiki/Business-to-government
p2242
VBusiness-to-government
p2243
tp2244
a(V/wiki/Great_Lakes_B2G
p2245
VGreat Lakes B2G
p2246
tp2247
asVB2M
p2248
(lp2249
(V/wiki/Beta-2_microglobulin
p2250
VBeta-2 microglobulin
p2251
tp2252
a(V/wiki/Business_to_many
p2253
VBusiness to many
p2254
tp2255
a(V/w/index.php?title=Business_to_manager&action=edit&redlink=1
p2256
VBusiness to manager (page does not exist)
p2257
tp2258
a(V/wiki/B2M_Entertainment
p2259
VB2M Entertainment
p2260
tp2261
a(V/wiki/Mitsubishi_B2M
p2262
VMitsubishi B2M
p2263
tp2264
a(V/wiki/B%C3%A2timent_multi-mission
p2265
VBtiment multi-mission
p2266
tp2267
asVB3
p2268
(lp2269
(V#Military
p2270
Ntp2271
a(V#American_bombers
p2272
Ntp2273
a(V#German_and_Austro-Hungarian_aircraft
p2274
Ntp2275
a(V#Submarines
p2276
Ntp2277
a(V#Civilian_transportation
p2278
Ntp2279
a(V#Roads
p2280
Ntp2281
a(V#Trains
p2282
Ntp2283
a(V#Other
p2284
Ntp2285
a(V#Other_2
p2286
Ntp2287
a(V#Biology_and_Medicine
p2288
Ntp2289
a(V#Banking
p2290
Ntp2291
a(V#Computing
p2292
Ntp2293
a(V#Engines
p2294
Ntp2295
a(V#Music
p2296
Ntp2297
a(V#Miscellaneous
p2298
Ntp2299
asVB4
p2300
(lp2301
(V#Transportation
p2302
Ntp2303
a(V#Aviation
p2304
Ntp2305
a(V#Locomotives
p2306
Ntp2307
a(V#Automotive_uses
p2308
Ntp2309
a(V#In_the_military
p2310
Ntp2311
a(V#In_science
p2312
Ntp2313
a(V#In_entertainment
p2314
Ntp2315
a(V#Other_uses
p2316
Ntp2317
a(V#See_also
p2318
Ntp2319
asVB4C
p2320
(lp2321
(V/wiki/Boron_carbide
p2322
VBoron carbide
p2323
tp2324
a(V/wiki/Chevrolet_Camaro_B4C
p2325
VChevrolet Camaro B4C
p2326
tp2327
asVB4U
p2328
(lp2329
(V/wiki/B4U_(network)
p2330
VB4U (network)
p2331
tp2332
a(V/wiki/B4U_(song)
p2333
VB4U (song)
p2334
tp2335
asVB5
p2336
(lp2337
(V#Biology
p2338
Ntp2339
a(V#Entertainment
p2340
Ntp2341
a(V#Transport
p2342
Ntp2343
a(V#Other
p2344
Ntp2345
a(V#See_also
p2346
Ntp2347
asVB6
p2348
(lp2349
(V/wiki/Vitamin_B6
p2350
VVitamin B6
p2351
tp2352
asVB7
p2353
(lp2354
(V/wiki/Docklands_Light_Railway_rolling_stock
p2355
VDocklands Light Railway rolling stock
p2356
tp2357
a(V/wiki/B7_(New_York_City_bus)
p2358
VB7 (New York City bus)
p2359
tp2360
a(V/w/index.php?title=B7_road_(Cyprus)&action=edit&redlink=1
p2361
VB7 road (Cyprus) (page does not exist)
p2362
tp2363
a(V/wiki/Bundesstra%C3%9Fe_7
p2364
VBundesstrae 7
p2365
tp2366
a(V/wiki/Bavarian_B_VII
p2367
VBavarian B VII
p2368
tp2369
a(V/w/index.php?title=PRR_B7&action=edit&redlink=1
p2370
VPRR B7 (page does not exist)
p2371
tp2372
a(V/wiki/Norwegian_railway_carriages
p2373
VNorwegian railway carriages
p2374
tp2375
a(V/wiki/HMS_B7
p2376
VHMS B7
p2377
tp2378
a(V/wiki/Blackburn_B-7
p2379
VBlackburn B-7
p2380
tp2381
a(V/wiki/Lohner_B.VII
p2382
VLohner B.VII
p2383
tp2384
a(V/wiki/Douglas_Y1B-7
p2385
VDouglas Y1B-7
p2386
tp2387
a(V/wiki/UNI_Airways
p2388
VUNI Airways
p2389
tp2390
a(V/wiki/Boeing_777
p2391
VBoeing 777
p2392
tp2393
a(V/wiki/Bensen_B-7
p2394
VBensen B-7
p2395
tp2396
asVB8
p2397
(lp2398
(V/wiki/B8_(New_York_City_bus)
p2399
VB8 (New York City bus)
p2400
tp2401
a(V/wiki/Bavarian_B_VIII
p2402
VBavarian B VIII
p2403
tp2404
a(V/wiki/Bensen_B-8
p2405
VBensen B-8
p2406
tp2407
a(V/wiki/HLA-B8
p2408
VHLA-B8
p2409
tp2410
a(V/wiki/HMS_B8
p2411
VHMS B8
p2412
tp2413
a(V/wiki/Mazda_B_engine#B8
p2414
VMazda B engine
p2415
tp2416
a(V/wiki/Fokker_XB-8
p2417
VFokker XB-8
p2418
tp2419
a(V/wiki/Eritrean_Airlines
p2420
VEritrean Airlines
p2421
tp2422
asVB9
p2423
(lp2424
(V/wiki/B9_(Croatia)
p2425
VB9 (Croatia)
p2426
tp2427
a(V/wiki/B9_(New_York_City_bus)
p2428
VB9 (New York City bus)
p2429
tp2430
a(V/wiki/Bavarian_B_IX
p2431
VBavarian B IX
p2432
tp2433
a(V/wiki/Bavarian_B_IX_(Ostbahn)
p2434
VBavarian B IX (Ostbahn)
p2435
tp2436
a(V/wiki/Bensen_B-9
p2437
VBensen B-9
p2438
tp2439
a(V/wiki/Boeing_B-9
p2440
VBoeing B-9
p2441
tp2442
a(V/wiki/Bundesstra%C3%9Fe_9
p2443
VBundesstrae 9
p2444
tp2445
a(V/wiki/HMS_B9
p2446
VHMS B9
p2447
tp2448
asVB10
p2449
(lp2450
(V/wiki/Big_Ten_Conference
p2451
VBig Ten Conference
p2452
tp2453
a(V/wiki/B10_(1930s_New_York_City_bus)
p2454
VB10 (1930s New York City bus)
p2455
tp2456
a(V/w/index.php?title=B10_road_(Cyprus)&action=edit&redlink=1
p2457
VB10 road (Cyprus) (page does not exist)
p2458
tp2459
a(V/wiki/Biodiesel#Blends
p2460
VBiodiesel
p2461
tp2462
a(V/wiki/B-10_motorway_(Spain)
p2463
VB-10 motorway (Spain)
p2464
tp2465
a(V/wiki/B-10_recoilless_rifle
p2466
VB-10 recoilless rifle
p2467
tp2468
a(V/wiki/Bavarian_B_X
p2469
VBavarian B X
p2470
tp2471
a(V/wiki/Bensen_B-10
p2472
VBensen B-10
p2473
tp2474
a(V/wiki/Bundesstra%C3%9Fe_10
p2475
VBundesstrae 10
p2476
tp2477
a(V/wiki/HMS_B10
p2478
VHMS B10
p2479
tp2480
a(V/wiki/Martin_B-10
p2481
VMartin B-10
p2482
tp2483
a(V/wiki/Mean_time_between_failures#MTTF_and_MTTFd_calculation
p2484
VMean time between failures
p2485
tp2486
a(V/wiki/Circuit_breaker#Standard_current_ratings
p2487
VCircuit breaker
p2488
tp2489
asVB11
p2490
(lp2491
(V/wiki/B11_(New_York_City_bus)
p2492
VB11 (New York City bus)
p2493
tp2494
a(V/wiki/B-11_recoilless_rifle
p2495
VB-11 recoilless rifle
p2496
tp2497
a(V/wiki/Gareth_Bale
p2498
VGareth Bale
p2499
tp2500
a(V/wiki/Bavarian_B_XI
p2501
VBavarian B XI
p2502
tp2503
a(V/w/index.php?title=Bensen_B-11&action=edit&redlink=1
p2504
VBensen B-11 (page does not exist)
p2505
tp2506
a(V/wiki/HMS_B11
p2507
VHMS B11
p2508
tp2509
a(V/wiki/Bundesstra%C3%9Fe_11
p2510
VBundesstrae 11
p2511
tp2512
asVB12
p2513
(lp2514
(V/wiki/Vitamin_B12
p2515
VVitamin B12
p2516
tp2517
asVB13
p2518
(lp2519
(V/wiki/B13_(New_York_City_bus)
p2520
VB13 (New York City bus)
p2521
tp2522
a(V/w/index.php?title=B13_road_(Cyprus)&action=edit&redlink=1
p2523
VB13 road (Cyprus) (page does not exist)
p2524
tp2525
a(V/wiki/Brainiac_13
p2526
VBrainiac 13
p2527
tp2528
a(V/w/index.php?title=Bensen_B-13&action=edit&redlink=1
p2529
VBensen B-13 (page does not exist)
p2530
tp2531
a(V/wiki/Boston_Thirteens
p2532
VBoston Thirteens
p2533
tp2534
a(V/w/index.php?title=Chery_B13&action=edit&redlink=1
p2535
VChery B13 (page does not exist)
p2536
tp2537
a(V/wiki/District_B13
p2538
VDistrict B13
p2539
tp2540
a(V/wiki/HLA-B13
p2541
VHLA-B13
p2542
tp2543
a(V/wiki/Martin_XB-13
p2544
VMartin XB-13
p2545
tp2546
a(V/wiki/Caro-Kann_Defence
p2547
VCaro-Kann Defence
p2548
tp2549
a(V/wiki/Moseley
p2550
VMoseley
p2551
tp2552
a(V/wiki/Orotic_acid
p2553
VOrotic acid
p2554
tp2555
a(V/wiki/Nissan_Sentra
p2556
VNissan Sentra
p2557
tp2558
a(V/wiki/Queensland_B13_class_locomotive
p2559
VQueensland B13 class locomotive
p2560
tp2561
a(V/wiki/Circuit_breaker#Standard_current_ratings
p2562
VCircuit breaker
p2563
tp2564
a(V/wiki/Jalan_Uniten%E2%80%93Dengkil
p2565
VJalan Uniten\u2013Dengkil
p2566
tp2567
asVB13R
p2568
(lp2569
(V/wiki/B13R_(virus_protein)
p2570
VB13R (virus protein)
p2571
tp2572
a(V/wiki/Volvo_B13R
p2573
VVolvo B13R
p2574
tp2575
asVB14
p2576
(lp2577
(V/wiki/B14_(New_York_City_bus)
p2578
VB14 (New York City bus)
p2579
tp2580
a(V/wiki/HLA-B14
p2581
VHLA-B14
p2582
tp2583
a(V/wiki/London_Buses_route_B14
p2584
VLondon Buses route B14
p2585
tp2586
a(V/wiki/Bundesstra%C3%9Fe_14
p2587
VBundesstrae 14
p2588
tp2589
asVB15
p2590
(lp2591
(V/wiki/B15_(New_York_City_bus)
p2592
VB15 (New York City bus)
p2593
tp2594
a(V/wiki/HLA-B15
p2595
VHLA-B15
p2596
tp2597
a(V/wiki/Iceberg_B-15
p2598
VIceberg B-15
p2599
tp2600
a(V/wiki/London_Buses_route_B15
p2601
VLondon Buses route B15
p2602
tp2603
a(V/wiki/Pangamic_acid
p2604
VPangamic acid
p2605
tp2606
a(V/wiki/Boeing_XB-15
p2607
VBoeing XB-15
p2608
tp2609
a(V/wiki/Bundesstra%C3%9Fe_15
p2610
VBundesstrae 15
p2611
tp2612
a(V/wiki/Caro%E2%80%93Kann_Defence
p2613
VCaro\u2013Kann Defence
p2614
tp2615
a(V/wiki/Nissan_Sentra
p2616
VNissan Sentra
p2617
tp2618
a(V/wiki/Brandon_Marshall
p2619
VBrandon Marshall
p2620
tp2621
asVB16
p2622
(lp2623
(V/wiki/B16_(New_York_City_bus)
p2624
VB16 (New York City bus)
p2625
tp2626
a(V/wiki/HLA-B16
p2627
VHLA-B16
p2628
tp2629
a(V/wiki/Honda_B_engine#B16
p2630
VHonda B engine
p2631
tp2632
a(V/wiki/Volvo_B16_engine
p2633
VVolvo B16 engine
p2634
tp2635
a(V/wiki/Martin_XB-16
p2636
VMartin XB-16
p2637
tp2638
a(V/wiki/B16_Melanoma
p2639
VB16 Melanoma
p2640
tp2641
a(V/wiki/Caro%E2%80%93Kann_Defence
p2642
VCaro\u2013Kann Defence
p2643
tp2644
a(V/wiki/Pope_Benedict_XVI
p2645
VPope Benedict XVI
p2646
tp2647
a(V/wiki/Bundesstra%C3%9Fe_16
p2648
VBundesstrae 16
p2649
tp2650
a(V/wiki/Circuit_breaker#Standard_current_ratings
p2651
VCircuit breaker
p2652
tp2653
asVB17
p2654
(lp2655
(V/wiki/Boeing_B-17_Flying_Fortress
p2656
VBoeing B-17 Flying Fortress
p2657
tp2658
a(V/wiki/B-17,_Queen_of_the_Skies
p2659
VB-17, Queen of the Skies
p2660
tp2661
a(V/wiki/B-17_Bomber_(game)
p2662
VB-17 Bomber (game)
p2663
tp2664
a(V/wiki/B-17_Flying_Fortress_(computer_game)
p2665
VB-17 Flying Fortress (computer game)
p2666
tp2667
a(V/wiki/Heavy_Metal_(film)
p2668
VHeavy Metal (film)
p2669
tp2670
a(V/wiki/B17_(New_York_City_bus)
p2671
VB17 (New York City bus)
p2672
tp2673
a(V/wiki/Amygdalin
p2674
VAmygdalin
p2675
tp2676
a(V/wiki/LNER_Class_B17
p2677
VLNER Class B17
p2678
tp2679
a(V/wiki/HLA-B17
p2680
VHLA-B17
p2681
tp2682
a(V/wiki/Brooks_England
p2683
VBrooks England
p2684
tp2685
a(V/wiki/Caro-Kann_Defence
p2686
VCaro-Kann Defence
p2687
tp2688
a(V/wiki/Please_Mr._Please
p2689
VPlease Mr. Please
p2690
tp2691
a(V/wiki/Nissan_Sentra#B17_(2013\u2013present)
p2692
VNissan Sentra
p2693
tp2694
a(V/wiki/Sector_B17
p2695
VSector B17
p2696
tp2697
asVB18
p2698
(lp2699
(V/wiki/Alton_Bay_Seaplane_Base
p2700
VAlton Bay Seaplane Base
p2701
tp2702
a(V/wiki/B-18_Bolo
p2703
VB-18 Bolo
p2704
tp2705
a(V/wiki/B_18
p2706
VB 18
p2707
tp2708
a(V/wiki/B18_(New_York_City_bus)
p2709
VB18 (New York City bus)
p2710
tp2711
a(V/w/index.php?title=B18_road_(Cyprus)&action=edit&redlink=1
p2712
VB18 road (Cyprus) (page does not exist)
p2713
tp2714
a(V/wiki/Chess
p2715
VChess
p2716
tp2717
a(V/wiki/HLA-B18
p2718
VHLA-B18
p2719
tp2720
a(V/wiki/Honda_B_engine
p2721
VHonda B engine
p2722
tp2723
a(V/wiki/Volvo_B18_engine
p2724
VVolvo B18 engine
p2725
tp2726
asVB19
p2727
(lp2728
(V/wiki/B19_(New_York_City_bus)
p2729
VB19 (New York City bus)
p2730
tp2731
a(V/wiki/Douglas_XB-19
p2732
VDouglas XB-19
p2733
tp2734
a(V/wiki/Parvovirus_B19
p2735
VParvovirus B19
p2736
tp2737
a(V/wiki/Caro%E2%80%93Kann_Defence
p2738
VCaro\u2013Kann Defence
p2739
tp2740
a(V/wiki/Patient_B-19
p2741
VPatient B-19
p2742
tp2743
asVB20
p2744
(lp2745
(V/wiki/List_of_G20_summits#B20_Summits
p2746
VList of G20 summits
p2747
tp2748
a(V/wiki/B20_(biodiesel)
p2749
VB20 (biodiesel)
p2750
tp2751
a(V/wiki/B20_(bronze)
p2752
VB20 (bronze)
p2753
tp2754
a(V/wiki/B20_(New_York_City_bus)
p2755
VB20 (New York City bus)
p2756
tp2757
a(V/wiki/Berezin_B-20
p2758
VBerezin B-20
p2759
tp2760
a(V/wiki/Honda_b_engine
p2761
VHonda b engine
p2762
tp2763
a(V/wiki/Volvo_B18_engine#B20
p2764
VVolvo B18 engine
p2765
tp2766
a(V/wiki/Circuit_breaker#Standard_current_ratings
p2767
VCircuit breaker
p2768
tp2769
asVB21
p2770
(lp2771
(V/wiki/B21_(New_York_City_bus)
p2772
VB21 (New York City bus)
p2773
tp2774
a(V/wiki/BSA_B21
p2775
VBSA B21
p2776
tp2777
a(V/wiki/Kepong%E2%80%93Selayang_Highway
p2778
VKepong\u2013Selayang Highway
p2779
tp2780
a(V/wiki/Leyland_B21
p2781
VLeyland B21
p2782
tp2783
a(V/wiki/Volvo_Redblock_Engine
p2784
VVolvo Redblock Engine
p2785
tp2786
a(V/wiki/Chevron_Cars_Ltd
p2787
VChevron Cars Ltd
p2788
tp2789
asVB22
p2790
(lp2791
(V/wiki/Iceberg
p2792
VIceberg
p2793
tp2794
a(V/wiki/Bayonet_mount
p2795
VBayonet mount
p2796
tp2797
a(V/wiki/Bundesstra%C3%9Fe_22
p2798
VBundesstrae 22
p2799
tp2800
a(V/wiki/Chery_B22
p2801
VChery B22
p2802
tp2803
a(V/wiki/Douglas_XB-22
p2804
VDouglas XB-22
p2805
tp2806
a(V/wiki/HLA-B22
p2807
VHLA-B22
p2808
tp2809
a(V/wiki/MWfly_B22
p2810
VMWfly B22
p2811
tp2812
a(V/wiki/Micro_Aviation_B22_Bantam
p2813
VMicro Aviation B22 Bantam
p2814
tp2815
a(V/wiki/Sicilian_Defence
p2816
VSicilian Defence
p2817
tp2818
a(V/wiki/AIDS_dementia_complex
p2819
VAIDS dementia complex
p2820
tp2821
asVB23
p2822
(lp2823
(V/wiki/NPM1
p2824
VNPM1
p2825
tp2826
a(V/wiki/Volvo_Redblock_Engine
p2827
VVolvo Redblock Engine
p2828
tp2829
a(V/wiki/Bundesstra%C3%9Fe_23
p2830
VBundesstrae 23
p2831
tp2832
a(V/w/index.php?title=B-23_(autov%C3%ADa)&action=edit&redlink=1
p2833
VB-23 (autova) (page does not exist)
p2834
tp2835
asVB24
p2836
(lp2837
(V/wiki/B-24_Liberator
p2838
VB-24 Liberator
p2839
tp2840
a(V/wiki/Autovia_B-24
p2841
VAutovia B-24
p2842
tp2843
a(V/wiki/Blackburn_B-24
p2844
VBlackburn B-24
p2845
tp2846
asVB25
p2847
(lp2848
(V/wiki/B-25_Mitchell
p2849
VB-25 Mitchell
p2850
tp2851
a(V/wiki/Blackburn_B-25
p2852
VBlackburn B-25
p2853
tp2854
a(V/wiki/Gibson_B_series
p2855
VGibson B series
p2856
tp2857
a(V/wiki/Fulton_Street_Line_(Brooklyn_surface)
p2858
VFulton Street Line (Brooklyn surface)
p2859
tp2860
a(V/wiki/Kota_language_(Gabon)
p2861
VKota language (Gabon)
p2862
tp2863
a(V/wiki/Circuit_breaker#Standard_current_ratings
p2864
VCircuit breaker
p2865
tp2866
a(V/wiki/MWfly_B25
p2867
VMWfly B25
p2868
tp2869
a(V/wiki/Cat_B25
p2870
VCat B25
p2871
tp2872
asVB26
p2873
(lp2874
(V/wiki/Sicilian_Defence
p2875
VSicilian Defence
p2876
tp2877
asVB27
p2878
(lp2879
(V/wiki/Bundesstra%C3%9Fe_27
p2880
VBundesstrae 27
p2881
tp2882
a(V/wiki/HLA-B27
p2883
VHLA-B27
p2884
tp2885
asVB28
p2886
(lp2887
(V/wiki/B28_expressway_(Croatia)
p2888
VB28 expressway (Croatia)
p2889
tp2890
a(V/wiki/B-28_Dragon
p2891
VB-28 Dragon
p2892
tp2893
a(V/wiki/B-28_(grape)
p2894
VB-28 (grape)
p2895
tp2896
a(V/wiki/B28_nuclear_bomb
p2897
VB28 nuclear bomb
p2898
tp2899
a(V/wiki/Bundesstra%C3%9Fe_28
p2900
VBundesstrae 28
p2901
tp2902
a(V/w/index.php?title=URUS_B28&action=edit&redlink=1
p2903
VURUS B28 (page does not exist)
p2904
tp2905
a(V/wiki/Band_28
p2906
VBand 28
p2907
tp2908
asVB29
p2909
(lp2910
(V/wiki/Sicilian_Defence
p2911
VSicilian Defence
p2912
tp2913
a(V/wiki/CD79B
p2914
VCD79B
p2915
tp2916
a(V/wiki/B-29_Superfortress
p2917
VB-29 Superfortress
p2918
tp2919
asVB30
p2920
(lp2921
(V/wiki/Sicilian_Defence
p2922
VSicilian Defence
p2923
tp2924
a(V/wiki/Bundesstra%C3%9Fe_30
p2925
VBundesstrae 30
p2926
tp2927
a(V/wiki/Lockheed_XB-30
p2928
VLockheed XB-30
p2929
tp2930
a(V/wiki/Route_B30_(WMATA)
p2931
VRoute B30 (WMATA)
p2932
tp2933
a(V/wiki/Sellafield
p2934
VSellafield
p2935
tp2936
asVB31
p2937
(lp2938
(V/wiki/B-31_(Michigan_county_highway)
p2939
VB-31 (Michigan county highway)
p2940
tp2941
a(V/wiki/B31_(New_York_City_bus)
p2942
VB31 (New York City bus)
p2943
tp2944
asVB32
p2945
(lp2946
(V/wiki/B_Boats_B-32
p2947
VB Boats B-32
p2948
tp2949
a(V/w/index.php?title=Bundesstra%C3%9Fe_32&action=edit&redlink=1
p2950
VBundesstrae 32 (page does not exist)
p2951
tp2952
a(V/wiki/B-32_Dominator
p2953
VB-32 Dominator
p2954
tp2955
a(V/wiki/Birdman_(rapper)
p2956
VBirdman (rapper)
p2957
tp2958
a(V/wiki/Circuit_breaker#Standard_current_ratings
p2959
VCircuit breaker
p2960
tp2961
asVB33
p2962
(lp2963
(V/w/index.php?title=Bundesstra%C3%9Fe_33&action=edit&redlink=1
p2964
VBundesstrae 33 (page does not exist)
p2965
tp2966
a(V/wiki/Strathalbyn_Road
p2967
VStrathalbyn Road
p2968
tp2969
a(V/wiki/XB-33_Super_Marauder
p2970
VXB-33 Super Marauder
p2971
tp2972
a(V/wiki/Horsehead_Nebula
p2973
VHorsehead Nebula
p2974
tp2975
a(V/wiki/Ilyushin_Il-10
p2976
VIlyushin Il-10
p2977
tp2978
asVB34
p2979
(lp2980
(V/wiki/Avia_B-34
p2981
VAvia B-34
p2982
tp2983
a(V/wiki/Sicilian_Defence,_Accelerated_Dragon
p2984
VSicilian Defence, Accelerated Dragon
p2985
tp2986
a(V/wiki/Lockheed_Ventura_B-34_Lexington
p2987
VLockheed Ventura B-34 Lexington
p2988
tp2989
a(V/wiki/Unterseeboot_B-34
p2990
VUnterseeboot B-34
p2991
tp2992
asVB35
p2993
(lp2994
(V/w/index.php?title=Bundesstra%C3%9Fe_35&action=edit&redlink=1
p2995
VBundesstrae 35 (page does not exist)
p2996
tp2997
a(V/wiki/B35_(New_York_City_bus)
p2998
VB35 (New York City bus)
p2999
tp3000
a(V/wiki/HLA-B35
p3001
VHLA-B35
p3002
tp3003
a(V/wiki/Beechcraft_Bonanza#Model_35_Bonanza
p3004
VBeechcraft Bonanza
p3005
tp3006
asVB36
p3007
(lp3008
(V/wiki/B36_(New_York_City_bus)
p3009
VB36 (New York City bus)
p3010
tp3011
a(V/wiki/B36_T%C3%B3rshavn
p3012
VB36 Trshavn
p3013
tp3014
a(V/wiki/Convair_B-36_Peacemaker
p3015
VConvair B-36 Peacemaker
p3016
tp3017
a(V/wiki/B-36_Peacemaker_Museum
p3018
VB-36 Peacemaker Museum
p3019
tp3020
a(V/wiki/Borophene
p3021
VBorophene
p3022
tp3023
asVB37
p3024
(lp3025
(V/wiki/HLA-B37
p3026
VHLA-B37
p3027
tp3028
a(V/w/index.php?title=Bundesstra%C3%9Fe_37&action=edit&redlink=1
p3029
VBundesstrae 37 (page does not exist)
p3030
tp3031
a(V/wiki/ATN1
p3032
VATN1
p3033
tp3034
a(V/wiki/Strathalbyn%E2%80%93Goolwa_Road
p3035
VStrathalbyn\u2013Goolwa Road
p3036
tp3037
asVB38
p3038
(lp3039
(V/wiki/Sicilian_Defence,_Accelerated_Dragon
p3040
VSicilian Defence, Accelerated Dragon
p3041
tp3042
a(V/w/index.php?title=Bundesstra%C3%9Fe_38&action=edit&redlink=1
p3043
VBundesstrae 38 (page does not exist)
p3044
tp3045
a(V/wiki/XB-38_Flying_Fortress
p3046
VXB-38 Flying Fortress
p3047
tp3048
a(V/wiki/BMW_B38
p3049
VBMW B38
p3050
tp3051
a(V/wiki/B38_(New_York_City_bus)
p3052
VB38 (New York City bus)
p3053
tp3054
a(V/wiki/HLA-B38
p3055
VHLA-B38
p3056
tp3057
asVB39
p3058
(lp3059
(V/w/index.php?title=Bundesstra%C3%9Fe_39&action=edit&redlink=1
p3060
VBundesstrae 39 (page does not exist)
p3061
tp3062
a(V/wiki/B39_nuclear_bomb
p3063
VB39 nuclear bomb
p3064
tp3065
a(V/wiki/XB-39_Superfortress
p3066
VXB-39 Superfortress
p3067
tp3068
a(V/wiki/Soviet_submarine_B-39
p3069
VSoviet submarine B-39
p3070
tp3071
a(V/wiki/HLA-B39
p3072
VHLA-B39
p3073
tp3074
a(V/wiki/B39_(New_York_City_bus)
p3075
VB39 (New York City bus)
p3076
tp3077
asVB40
p3078
(lp3079
(V#Roads
p3080
Ntp3081
a(V#In_Science
p3082
Ntp3083
a(V#Military
p3084
Ntp3085
a(V#Other
p3086
Ntp3087
asVB41
p3088
(lp3089
(V/wiki/D41_road_(Croatia)
p3090
VD41 road (Croatia)
p3091
tp3092
a(V/w/index.php?title=Bundesstra%C3%9Fe_41&action=edit&redlink=1
p3093
VBundesstrae 41 (page does not exist)
p3094
tp3095
a(V/wiki/B41_(New_York_City_bus)
p3096
VB41 (New York City bus)
p3097
tp3098
a(V/wiki/B41_nuclear_bomb
p3099
VB41 nuclear bomb
p3100
tp3101
a(V/wiki/HLA-B41
p3102
VHLA-B41
p3103
tp3104
a(V/wiki/B-41_Liberator
p3105
VB-41 Liberator
p3106
tp3107
a(V/wiki/RPG-7
p3108
VRPG-7
p3109
tp3110
asVB42
p3111
(lp3112
(V/wiki/Gutenberg_Bible
p3113
VGutenberg Bible
p3114
tp3115
a(V/w/index.php?title=Bundesstra%C3%9Fe_42&action=edit&redlink=1
p3116
VBundesstrae 42 (page does not exist)
p3117
tp3118
a(V/wiki/B42_(New_York_City_bus)
p3119
VB42 (New York City bus)
p3120
tp3121
a(V/wiki/HLA-B42
p3122
VHLA-B42
p3123
tp3124
asVB43
p3125
(lp3126
(V/w/index.php?title=Bundesstra%C3%9Fe_43&action=edit&redlink=1
p3127
VBundesstrae 43 (page does not exist)
p3128
tp3129
a(V/wiki/B43_(New_York_City_bus)
p3130
VB43 (New York City bus)
p3131
tp3132
a(V/wiki/B43_nuclear_bomb
p3133
VB43 nuclear bomb
p3134
tp3135
a(V/wiki/CD19
p3136
VCD19
p3137
tp3138
asVB44
p3139
(lp3140
(V/w/index.php?title=Bundesstra%C3%9Fe_44&action=edit&redlink=1
p3141
VBundesstrae 44 (page does not exist)
p3142
tp3143
a(V/wiki/B44_(New_York_City_bus)
p3144
VB44 (New York City bus)
p3145
tp3146
a(V/wiki/B44_SBS_(New_York_City_bus)
p3147
VB44 SBS (New York City bus)
p3148
tp3149
a(V/wiki/HLA-B44
p3150
VHLA-B44
p3151
tp3152
a(V/wiki/XB-44_Superfortress
p3153
VXB-44 Superfortress
p3154
tp3155
a(V/wiki/B4-4
p3156
VB4-4
p3157
tp3158
asVB45
p3159
(lp3160
(V/wiki/Bundesstra%C3%9Fe_45
p3161
VBundesstrae 45
p3162
tp3163
a(V/wiki/B45_(New_York_City_bus)
p3164
VB45 (New York City bus)
p3165
tp3166
a(V/wiki/HLA-B45
p3167
VHLA-B45
p3168
tp3169
a(V/wiki/B-45_Tornado
p3170
VB-45 Tornado
p3171
tp3172
asVB46
p3173
(lp3174
(V/wiki/Bundesstra%C3%9Fe_46
p3175
VBundesstrae 46
p3176
tp3177
a(V/wiki/B46_(New_York_City_bus)
p3178
VB46 (New York City bus)
p3179
tp3180
a(V/wiki/B46_nuclear_bomb
p3181
VB46 nuclear bomb
p3182
tp3183
a(V/wiki/HLA-B46
p3184
VHLA-B46
p3185
tp3186
a(V/wiki/Sicilian_Defence#Taimanov_Variation:_4...Nc6
p3187
VSicilian Defence
p3188
tp3189
as.