(dp0
VH (disambiguation)
p1
(lp2
(V#Musical_symbols
p3
Ntp4
a(V#People
p5
Ntp6
a(V#Scientific_and_mathematical_symbols
p7
Ntp8
a(V#Planets
p9
Ntp10
a(V#Film_and_TV
p11
Ntp12
a(V#Music
p13
Ntp14
a(V#Other_uses
p15
Ntp16
a(V#See_also
p17
Ntp18
asVH band
p19
(lp20
(V/wiki/H_band_(infrared)
p21
VH band (infrared)
p22
tp23
a(V/wiki/H_band_(NATO)
p24
VH band (NATO)
p25
tp26
a(V/wiki/Sarcomere
p27
VSarcomere
p28
tp29
asVH class
p30
(lp31
(V#Railway_locomotives
p32
Ntp33
a(V#Trams
p34
Ntp35
a(V#Ship_types
p36
Ntp37
a(V#Other_uses
p38
Ntp39
a(V#See_also
p40
Ntp41
asVH Day
p42
(lp43
(V/wiki/Dagen_H
p44
VDagen H
p45
tp46
a(V/wiki/H-dagurinn
p47
VH-dagurinn
p48
tp49
a(V/wiki/H._Day
p50
VH. Day
p51
tp52
asVRNLB H F Bailey
p53
(lp54
(V/wiki/RNLB_H_F_Bailey_(ON_670)
p55
VRNLB H F Bailey (ON 670)
p56
tp57
a(V/wiki/RNLB_H_F_Bailey_(ON_694)
p58
VRNLB H F Bailey (ON 694)
p59
tp60
a(V/wiki/RNLB_H_F_Bailey_II_(ON_714)
p61
VRNLB H F Bailey II (ON 714)
p62
tp63
a(V/wiki/RNLB_H_F_Bailey_III_(ON_777)
p64
VRNLB H F Bailey III (ON 777)
p65
tp66
asVH index
p67
(lp68
(V/wiki/Herfindahl_index
p69
VHerfindahl index
p70
tp71
a(V/wiki/H-index
p72
VH-index
p73
tp74
asVH line
p75
(lp76
(V/wiki/Line_H_(Buenos_Aires_Underground)
p77
VLine H (Buenos Aires Underground)
p78
tp79
a(V/wiki/Mercury-vapor_lamp#Emission_line_spectrum
p80
VMercury-vapor lamp
p81
tp82
a(V/wiki/Calcium_H_line
p83
VCalcium H line
p84
tp85
a(V/wiki/Pencil_skirt
p86
VPencil skirt
p87
tp88
asVH number
p89
(lp90
(V/wiki/H-number_(photography)
p91
VH-number (photography)
p92
tp93
a(V/wiki/H_number_(musical_catalogue)
p94
VH number (musical catalogue)
p95
tp96
a(V/wiki/H-index
p97
VH-index
p98
tp99
a(V/wiki/Herfindahl_index
p100
VHerfindahl index
p101
tp102
asVH road
p103
(lp104
(V/wiki/Milton_Keynes_grid_road_system#Horizontal_grid_roads
p105
VMilton Keynes grid road system
p106
tp107
a(V/wiki/Hitra_cesta
p108
VHitra cesta
p109
tp110
a(V/wiki/Template:Roads_in_Ukraine
p111
VTemplate:Roads in Ukraine
p112
tp113
a(V/wiki/Category:Interstate_Highways_in_Hawaii
p114
VCategory:Interstate Highways in Hawaii
p115
tp116
a(g114
g115
tp117
a(V/wiki/List_of_County-Designated_Highways_in_Michigan#Highways_in_H_zone
p118
VList of County-Designated Highways in Michigan
p119
tp120
a(V/wiki/Corridor_H
p121
VCorridor H
p122
tp123
asVH series
p124
(lp125
(V/wiki/H_series_(Toronto_subway)
p126
VH series (Toronto subway)
p127
tp128
a(V/wiki/Chevrolet_Kodiak
p129
VChevrolet Kodiak
p130
tp131
a(V/wiki/QI_(H_series)
p132
VQI (H series)
p133
tp134
asVH Train
p135
(lp136
(V/wiki/Rockaway_Park_Shuttle
p137
VRockaway Park Shuttle
p138
tp139
a(V/wiki/InterCity_125
p140
VInterCity 125
p141
tp142
asVH visa
p143
(lp144
(V/wiki/H-1A_visa
p145
VH-1A visa
p146
tp147
a(V/wiki/H-1C_visa
p148
VH-1C visa
p149
tp150
a(V/wiki/H-1B_visa
p151
VH-1B visa
p152
tp153
a(V/wiki/H-1B1_visa
p154
VH-1B1 visa
p155
tp156
a(V/wiki/H-2A_visa
p157
VH-2A visa
p158
tp159
a(V/wiki/H-2B_visa
p160
VH-2B visa
p161
tp162
a(V/wiki/H-3_visa
p163
VH-3 visa
p164
tp165
a(V/wiki/H-4_visa
p166
VH-4 visa
p167
tp168
asVH-58
p169
(lp170
(V/wiki/H-58_(Michigan_county_highway)
p171
VH-58 (Michigan county highway)
p172
tp173
a(V/wiki/H-58_Kiowa
p174
VH-58 Kiowa
p175
tp176
asVH-bar
p177
(lp178
(V/wiki/H_with_stroke
p179
VH with stroke
p180
tp181
a(V/wiki/Reduced_Planck%27s_constant
p182
VReduced Planck's constant
p183
tp184
a(V/wiki/Antihydrogen
p185
VAntihydrogen
p186
tp187
a(V/wiki/Steyr_AUG
p188
VSteyr AUG
p189
tp190
a(V/wiki/Multirest
p191
VMultirest
p192
tp193
asVH-block
p194
(lp195
(V/wiki/H_engine
p196
VH engine
p197
tp198
a(V/wiki/Maze_(HM_Prison)
p199
VMaze (HM Prison)
p200
tp201
a(V/wiki/Anti_H-Block
p202
VAnti H-Block
p203
tp204
a(V/wiki/Royal_Air_Force
p205
VRoyal Air Force
p206
tp207
a(V/wiki/Aggressive_inline_skating
p208
VAggressive inline skating
p209
tp210
a(V/wiki/Band_(radio)
p211
VBand (radio)
p212
tp213
a(V/wiki/H_Block
p214
VH Block
p215
tp216
asVH-class submarine
p217
(lp218
(V/wiki/Holland_602_type_submarine
p219
VHolland 602 type submarine
p220
tp221
a(V/wiki/British_H-class_submarine
p222
VBritish H-class submarine
p223
tp224
a(V/w/index.php?title=Havmanden-class_submarine_(1938)&action=edit&redlink=1
p225
VHavmanden-class submarine (1938) (page does not exist)
p226
tp227
a(V/wiki/United_States_H-class_submarine
p228
VUnited States H-class submarine
p229
tp230
asVH-matrix
p231
(lp232
(V/wiki/H-matrix_(iterative_method)
p233
VH-matrix (iterative method)
p234
tp235
a(V/wiki/Hadamard_matrix
p236
VHadamard matrix
p237
tp238
a(V/wiki/Hamiltonian_matrix
p239
VHamiltonian matrix
p240
tp241
a(V/wiki/Hankel_matrix
p242
VHankel matrix
p243
tp244
a(V/wiki/Hasse%E2%80%93Witt_matrix
p245
VHasse\u2013Witt matrix
p246
tp247
a(V/wiki/Hat_matrix
p248
VHat matrix
p249
tp250
a(V/wiki/Hermitian_matrix
p251
VHermitian matrix
p252
tp253
a(V/wiki/Hessenberg_matrix
p254
VHessenberg matrix
p255
tp256
a(V/wiki/Hessian_matrix
p257
VHessian matrix
p258
tp259
a(V/wiki/Hierarchical_matrix
p260
VHierarchical matrix
p261
tp262
a(V/wiki/Hilbert_matrix
p263
VHilbert matrix
p264
tp265
a(V/wiki/Hollow_matrix
p266
VHollow matrix
p267
tp268
a(V/wiki/Hurwitz_matrix
p269
VHurwitz matrix
p270
tp271
asVH-Town
p272
(lp273
(V/wiki/Houston
p274
VHouston
p275
tp276
a(V/wiki/Hughson,_California
p277
VHughson, California
p278
tp279
a(V/wiki/Hamilton,_Ontario
p280
VHamilton, Ontario
p281
tp282
a(V/wiki/Hollister,_California
p283
VHollister, California
p284
tp285
a(V/wiki/Hamilton,_Ohio
p286
VHamilton, Ohio
p287
tp288
asVH. A. Lorentz
p289
(lp290
(V/wiki/Hendrik_Lorentz
p291
VHendrik Lorentz
p292
tp293
a(V/wiki/Hendrikus_Albertus_Lorentz
p294
VHendrikus Albertus Lorentz
p295
tp296
asVH. acaulis
p297
(lp298
(V/wiki/Helvella_acaulis
p299
VHelvella acaulis
p300
tp301
a(V/wiki/Hesperevax_acaulis
p302
VHesperevax acaulis
p303
tp304
a(V/wiki/Hymenoxys_acaulis
p305
VHymenoxys acaulis
p306
tp307
asVH. aculeata
p308
(lp309
(V/wiki/Haemaphysalis_aculeata
p310
VHaemaphysalis aculeata
p311
tp312
a(V/wiki/Hakea_aculeata
p313
VHakea aculeata
p314
tp315
a(V/wiki/Acanthinula_aculeata
p316
VAcanthinula aculeata
p317
tp318
asVH. acutirostris
p319
(lp320
(V/wiki/Heteralocha_acutirostris
p321
VHeteralocha acutirostris
p322
tp323
a(V/wiki/Hyperolius_acutirostris
p324
VHyperolius acutirostris
p325
tp326
asVH. africana
p327
(lp328
(V/wiki/Haplocoelopsis_africana
p329
VHaplocoelopsis africana
p330
tp331
a(V/wiki/Hydnora_africana
p332
VHydnora africana
p333
tp334
asVH. africanus
p335
(lp336
(V/wiki/Holodactylus_africanus
p337
VHolodactylus africanus
p338
tp339
a(V/wiki/Hydrolagus_africanus
p340
VHydrolagus africanus
p341
tp342
asVH. americanus
p343
(lp344
(V/wiki/Habronattus_americanus
p345
VHabronattus americanus
p346
tp347
a(V/w/index.php?title=Halictophagus_americanus&action=edit&redlink=1
p348
VHalictophagus americanus (page does not exist)
p349
tp350
a(V/wiki/Heliocarpus_americanus
p351
VHeliocarpus americanus
p352
tp353
a(V/wiki/Hemitripterus_americanus
p354
VHemitripterus americanus
p355
tp356
a(V/wiki/Homarus_americanus
p357
VHomarus americanus
p358
tp359
a(V/w/index.php?title=Humulus_americanus&action=edit&redlink=1
p360
VHumulus americanus (page does not exist)
p361
tp362
asVH. arenaria
p363
(lp364
(V/wiki/Hemicycliophora_arenaria
p365
VHemicycliophora arenaria
p366
tp367
a(V/wiki/Heterodera_arenaria
p368
VHeterodera arenaria
p369
tp370
asVH. aspera
p371
(lp372
(V/wiki/Hibbertia_aspera
p373
VHibbertia aspera
p374
tp375
a(V/wiki/Hydrangea_aspera
p376
VHydrangea aspera
p377
tp378
a(V/wiki/Hyphodontia_aspera
p379
VHyphodontia aspera
p380
tp381
a(V/w/index.php?title=Hypolepis_aspera&action=edit&redlink=1
p382
VHypolepis aspera (page does not exist)
p383
tp384
asVH. aspersa
p385
(lp386
(V/wiki/Helix_aspersa
p387
VHelix aspersa
p388
tp389
a(V/wiki/Hogna_aspersa
p390
VHogna aspersa
p391
tp392
a(V/wiki/Hyposmocoma_aspersa
p393
VHyposmocoma aspersa
p394
tp395
asVH. aurantiaca
p396
(lp397
(V/wiki/Hylarana_aurantiaca
p398
VHylarana aurantiaca
p399
tp400
a(V/wiki/Hygrophoropsis_aurantiaca
p401
VHygrophoropsis aurantiaca
p402
tp403
asVH. aurea
p404
(lp405
(V/wiki/Halydaia_aurea
p406
VHalydaia aurea
p407
tp408
a(V/wiki/Hypseleotris_aurea
p409
VHypseleotris aurea
p410
tp411
asVH. australiana
p412
(lp413
(V/w/index.php?title=Polyscias_australiana&action=edit&redlink=1
p414
VPolyscias australiana (page does not exist)
p415
tp416
a(V/wiki/Huperzia_australiana
p417
VHuperzia australiana
p418
tp419
a(V/w/index.php?title=Hyadesia_australiana&action=edit&redlink=1
p420
VHyadesia australiana (page does not exist)
p421
tp422
asVH. australis
p423
(lp424
(V/wiki/Haageocereus_australis
p425
VHaageocereus australis
p426
tp427
a(V/w/index.php?title=Hemiandra_australis&action=edit&redlink=1
p428
VHemiandra australis (page does not exist)
p429
tp430
a(V/wiki/Hoya_australis
p431
VHoya australis
p432
tp433
asVH. bergeri
p434
(lp435
(V/wiki/Homopus_bergeri
p436
VHomopus bergeri
p437
tp438
a(V/wiki/Hyalinobatrachium_bergeri
p439
VHyalinobatrachium bergeri
p440
tp441
asVH. bidentata
p442
(lp443
(V/w/index.php?title=Heterocrita_bidentata&action=edit&redlink=1
p444
VHeterocrita bidentata (page does not exist)
p445
tp446
a(V/wiki/Hexisea_bidentata
p447
VHexisea bidentata
p448
tp449
a(V/w/index.php?title=Hovanuncia_bidentata&action=edit&redlink=1
p450
VHovanuncia bidentata (page does not exist)
p451
tp452
asVH. brassicae
p453
(lp454
(V/wiki/Helminthosporium_brassicae
p455
VHelminthosporium brassicae
p456
tp457
a(V/wiki/Hyaloperonospora_brassicae
p458
VHyaloperonospora brassicae
p459
tp460
asVH. brevirostris
p461
(lp462
(V/wiki/Hippocampus_brevirostris
p463
VHippocampus brevirostris
p464
tp465
a(V/wiki/Hyaenodon_brevirostris
p466
VHyaenodon brevirostris
p467
tp468
asVH. californica
p469
(lp470
(V/wiki/Hackelia_californica
p471
VHackelia californica
p472
tp473
a(V/wiki/Helianthella_californica
p474
VHelianthella californica
p475
tp476
a(V/wiki/Horkelia_californica
p477
VHorkelia californica
p478
tp479
a(V/wiki/Hulsea_californica
p480
VHulsea californica
p481
tp482
asVH. californiensis
p483
(lp484
(V/wiki/Halorubrum_californiensis
p485
VHalorubrum californiensis
p486
tp487
a(V/wiki/Hesperodiaptomus_californiensis
p488
VHesperodiaptomus californiensis
p489
tp490
a(V/wiki/Hypselodoris_californiensis
p491
VHypselodoris californiensis
p492
tp493
asVH. carnea
p494
(lp495
(V/w/index.php?title=Hydractinia_carnea&action=edit&redlink=1
p496
VHydractinia carnea (page does not exist)
p497
tp498
a(V/w/index.php?title=Hypocrea_carnea&action=edit&redlink=1
p499
VHypocrea carnea (page does not exist)
p500
tp501
a(V/wiki/Hyposmocoma_carnea
p502
VHyposmocoma carnea
p503
tp504
a(V/wiki/Hypselodoris_carnea
p505
VHypselodoris carnea
p506
tp507
asVH. celebensis
p508
(lp509
(V/wiki/Harpyionycteris_celebensis
p510
VHarpyionycteris celebensis
p511
tp512
a(V/wiki/Hylarana_celebensis
p513
VHylarana celebensis
p514
tp515
asVH. commutata
p516
(lp517
(V/wiki/Hakea_commutata
p518
VHakea commutata
p519
tp520
a(V/wiki/Hibbertia_commutata
p521
VHibbertia commutata
p522
tp523
a(V/w/index.php?title=Hypolepis_commutata&action=edit&redlink=1
p524
VHypolepis commutata (page does not exist)
p525
tp526
asVH. concinna
p527
(lp528
(V/wiki/Haemaphysalis_concinna
p529
VHaemaphysalis concinna
p530
tp531
a(V/w/index.php?title=Helicostyla_concinna&action=edit&redlink=1
p532
VHelicostyla concinna (page does not exist)
p533
tp534
a(V/wiki/Hemidaphne_concinna
p535
VHemidaphne concinna
p536
tp537
a(V/wiki/Heterocithara_concinna
p538
VHeterocithara concinna
p539
tp540
a(V/w/index.php?title=Hibbertia_concinna&action=edit&redlink=1
p541
VHibbertia concinna (page does not exist)
p542
tp543
asVH. coronarium
p544
(lp545
(V/wiki/Hedysarum_coronarium
p546
VHedysarum coronarium
p547
tp548
a(V/wiki/Hedychium_coronarium
p549
VHedychium coronarium
p550
tp551
asVH. crispa
p552
(lp553
(V/wiki/Helvella_crispa
p554
VHelvella crispa
p555
tp556
a(V/w/index.php?title=Hennedya_crispa&action=edit&redlink=1
p557
VHennedya crispa (page does not exist)
p558
tp559
a(V/wiki/Herissantia_crispa
p560
VHerissantia crispa
p561
tp562
a(V/wiki/Heteractis_crispa
p563
VHeteractis crispa
p564
tp565
asVH. crocea
p566
(lp567
(V/wiki/Hainesia_crocea
p568
VHainesia crocea
p569
tp570
a(V/wiki/Hectomanes_crocea
p571
VHectomanes crocea
p572
tp573
a(V/w/index.php?title=Hesperocharis_crocea&action=edit&redlink=1
p574
VHesperocharis crocea (page does not exist)
p575
tp576
a(V/w/index.php?title=Homodes_crocea&action=edit&redlink=1
p577
VHomodes crocea (page does not exist)
p578
tp579
asVH. crucians
p580
(lp581
(V/wiki/Haplocyon_crucians
p582
VHaplocyon crucians
p583
tp584
a(V/wiki/Hyaenodon_crucians
p585
VHyaenodon crucians
p586
tp587
asVH. dentata
p588
(lp589
(V/wiki/Hibbertia_dentata
p590
VHibbertia dentata
p591
tp592
a(V/wiki/Hoplocorypha_dentata
p593
VHoplocorypha dentata
p594
tp595
asVH. dichotoma
p596
(lp597
(V/wiki/Hoppea_dichotoma
p598
VHoppea dichotoma
p599
tp600
a(V/wiki/Hyphaene_dichotoma
p601
VHyphaene dichotoma
p602
tp603
asVH. diptera
p604
(lp605
(V/wiki/Halesia_diptera
p606
VHalesia diptera
p607
tp608
a(V/w/index.php?title=Hoya_diptera&action=edit&redlink=1
p609
VHoya diptera (page does not exist)
p610
tp611
a(V/w/index.php?title=Diptera_Americae_Septentrionalis_indigena&action=edit&redlink=1
p612
VDiptera Americae Septentrionalis indigena (page does not exist)
p613
tp614
asVH. dubia
p615
(lp616
(V/wiki/Heteranthera_dubia
p617
VHeteranthera dubia
p618
tp619
a(V/wiki/Hierodula_dubia
p620
VHierodula dubia
p621
tp622
asVH. elegans
p623
(lp624
(V/w/index.php?title=Harpoceras_elegans&action=edit&redlink=1
p625
VHarpoceras elegans (page does not exist)
p626
tp627
a(V/wiki/Haplocyon_elegans
p628
VHaplocyon elegans
p629
tp630
a(V/wiki/Heuchera_elegans
p631
VHeuchera elegans
p632
tp633
a(V/wiki/Hydrophis_elegans
p634
VHydrophis elegans
p635
tp636
a(V/w/index.php?title=Hyospathe_elegans&action=edit&redlink=1
p637
VHyospathe elegans (page does not exist)
p638
tp639
asVH. ensifer
p640
(lp641
(V/wiki/Heterocarpus_ensifer
p642
VHeterocarpus ensifer
p643
tp644
a(V/wiki/Hyposmocoma_ensifer
p645
VHyposmocoma ensifer
p646
tp647
asVH. erecta
p648
(lp649
(V/wiki/Haloragis_erecta
p650
VHaloragis erecta
p651
tp652
asVH. erectus (disambiguation)
p653
(lp654
(V/wiki/Hippocampus_erectus
p655
VHippocampus erectus
p656
tp657
a(V/wiki/Hercostomus
p658
VHercostomus
p659
tp660
asVH. exigua
p661
(lp662
(V/wiki/Haematobia_exigua
p663
VHaematobia exigua
p664
tp665
a(V/wiki/Haliotis_exigua
p666
VHaliotis exigua
p667
tp668
a(V/w/index.php?title=Haminoea_exigua&action=edit&redlink=1
p669
VHaminoea exigua (page does not exist)
p670
tp671
a(V/wiki/Herviella_exigua
p672
VHerviella exigua
p673
tp674
a(V/w/index.php?title=Hogna_exigua&action=edit&redlink=1
p675
VHogna exigua (page does not exist)
p676
tp677
a(V/w/index.php?title=Hydractinia_exigua&action=edit&redlink=1
p678
VHydractinia exigua (page does not exist)
p679
tp680
asVH. F. Ahmanson
p681
(lp682
(V/wiki/Howard_F._Ahmanson_Sr.
p683
VHoward F. Ahmanson Sr.
p684
tp685
a(V/wiki/Howard_Ahmanson_Jr.
p686
VHoward Ahmanson Jr.
p687
tp688
a(V/wiki/H._F._Ahmanson_%26_Co.
p689
VH. F. Ahmanson & Co.
p690
tp691
asVH. fenestrata
p692
(lp693
(V/wiki/Hecatesia_fenestrata
p694
VHecatesia fenestrata
p695
tp696
a(V/w/index.php?title=Hexatoma_fenestrata&action=edit&redlink=1
p697
VHexatoma fenestrata (page does not exist)
p698
tp699
a(V/wiki/Hysterostegiella_fenestrata
p700
VHysterostegiella fenestrata
p701
tp702
asVH. ferruginea
p703
(lp704
(V/wiki/Hirundinea_ferruginea
p705
VHirundinea ferruginea
p706
tp707
a(V/wiki/Hopea_ferruginea
p708
VHopea ferruginea
p709
tp710
asVH. flavescens
p711
(lp712
(V/w/index.php?title=Haliclona_flavescens&action=edit&redlink=1
p713
VHaliclona flavescens (page does not exist)
p714
tp715
a(V/wiki/Halisidota_flavescens
p716
VHalisidota flavescens
p717
tp718
a(V/w/index.php?title=Haloa_flavescens&action=edit&redlink=1
p719
VHaloa flavescens (page does not exist)
p720
tp721
a(V/wiki/Halone_flavescens
p722
VHalone flavescens
p723
tp724
a(V/w/index.php?title=Haminoea_flavescens&action=edit&redlink=1
p725
VHaminoea flavescens (page does not exist)
p726
tp727
a(V/wiki/Harpalus_flavescens
p728
VHarpalus flavescens
p729
tp730
a(V/wiki/Hedychium_flavescens
p731
VHedychium flavescens
p732
tp733
a(V/wiki/Helcystogramma_flavescens
p734
VHelcystogramma flavescens
p735
tp736
a(V/wiki/Heleophis_flavescens
p737
VHeleophis flavescens
p738
tp739
a(V/wiki/Heliothis_flavescens
p740
VHeliothis flavescens
p741
tp742
a(V/wiki/Hesperilla_flavescens
p743
VHesperilla flavescens
p744
tp745
a(V/wiki/Heteroclinus_flavescens
p746
VHeteroclinus flavescens
p747
tp748
a(V/w/index.php?title=Heteronygmia_flavescens&action=edit&redlink=1
p749
VHeteronygmia flavescens (page does not exist)
p750
tp751
a(V/w/index.php?title=Hibana_flavescens&action=edit&redlink=1
p752
VHibana flavescens (page does not exist)
p753
tp754
a(V/wiki/Homoranthus_flavescens
p755
VHomoranthus flavescens
p756
tp757
a(V/w/index.php?title=Hoplopheromerus_flavescens&action=edit&redlink=1
p758
VHoplopheromerus flavescens (page does not exist)
p759
tp760
a(V/wiki/Hygrocybe_flavescens
p761
VHygrocybe flavescens
p762
tp763
a(V/w/index.php?title=Hygrophorus_flavescens&action=edit&redlink=1
p764
VHygrophorus flavescens (page does not exist)
p765
tp766
a(V/w/index.php?title=Hyllus_flavescens&action=edit&redlink=1
p767
VHyllus flavescens (page does not exist)
p768
tp769
a(V/wiki/Hylorana_flavescens
p770
VHylorana flavescens
p771
tp772
a(V/wiki/Hymenopappus_flavescens
p773
VHymenopappus flavescens
p774
tp775
a(V/wiki/Hypocnemis_flavescens
p776
VHypocnemis flavescens
p777
tp778
a(V/w/index.php?title=Hypoestes_flavescens&action=edit&redlink=1
p779
VHypoestes flavescens (page does not exist)
p780
tp781
a(V/w/index.php?title=Hypomyces_flavescens&action=edit&redlink=1
p782
VHypomyces flavescens (page does not exist)
p783
tp784
asVH. flavus
p785
(lp786
(V/wiki/Haplochromis_flavus
p787
VHaplochromis flavus
p788
tp789
a(V/wiki/Helius_flavus
p790
VHelius flavus
p791
tp792
a(V/wiki/Hemignathus_flavus
p793
VHemignathus flavus
p794
tp795
a(V/wiki/Hyalobagrus_flavus
p796
VHyalobagrus flavus
p797
tp798
asVH. floribunda
p799
(lp800
(V/wiki/Habenaria_floribunda
p801
VHabenaria floribunda
p802
tp803
a(V/wiki/Hackelia_floribunda
p804
VHackelia floribunda
p805
tp806
a(V/w/index.php?title=Hasseltia_floribunda&action=edit&redlink=1
p807
VHasseltia floribunda (page does not exist)
p808
tp809
a(V/wiki/Haworthia_floribunda
p810
VHaworthia floribunda
p811
tp812
a(V/w/index.php?title=Hemizonia_floribunda&action=edit&redlink=1
p813
VHemizonia floribunda (page does not exist)
p814
tp815
a(V/wiki/Holarrhena_floribunda
p816
VHolarrhena floribunda
p817
tp818
a(V/wiki/Hortonia_floribunda
p819
VHortonia floribunda
p820
tp821
asVH. foliata
p822
(lp823
(V/wiki/Hexaplex_foliata
p824
VHexaplex foliata
p825
tp826
a(V/wiki/Hoplocorypha_foliata
p827
VHoplocorypha foliata
p828
tp829
asVH. formosa
p830
(lp831
(V/wiki/Halgerda_formosa
p832
VHalgerda formosa
p833
tp834
a(V/wiki/Veronica_formosa
p835
VVeronica formosa
p836
tp837
a(V/wiki/Heterandria_formosa
p838
VHeterandria formosa
p839
tp840
asVH. fragilis
p841
(lp842
(V/wiki/Halimeda_fragilis
p843
VHalimeda fragilis
p844
tp845
a(V/wiki/Hechtia_fragilis
p846
VHechtia fragilis
p847
tp848
asVH. frontalis
p849
(lp850
(V/wiki/Hemiargyropsis_frontalis
p851
VHemiargyropsis frontalis
p852
tp853
a(V/wiki/Hemispingus_frontalis
p854
VHemispingus frontalis
p855
tp856
a(V/wiki/Hyperolius_frontalis
p857
VHyperolius frontalis
p858
tp859
asVH. G. Nelson
p860
(lp861
(V/wiki/Harold_George_Nelson
p862
VHarold George Nelson
p863
tp864
a(V/wiki/Greig_Pickhaver
p865
VGreig Pickhaver
p866
tp867
asVH. G. Ramesh
p868
(lp869
(V/wiki/Huluvadi_G._Ramesh
p870
VHuluvadi G. Ramesh
p871
tp872
a(V/wiki/Humchadakatte_G._Ramesh
p873
VHumchadakatte G. Ramesh
p874
tp875
asVH. G. Wells (disambiguation)
p876
(lp877
(V/wiki/H._G._Wells_(crater)
p878
VH. G. Wells (crater)
p879
tp880
a(V/wiki/H._G._Wells:_War_with_the_World
p881
VH. G. Wells: War with the World
p882
tp883
a(V/wiki/Henry_Gordon_Wells
p884
VHenry Gordon Wells
p885
tp886
a(V/wiki/Helena_G._Wells
p887
VHelena G. Wells
p888
tp889
a(V/wiki/Father,_Dear_Father
p890
VFather, Dear Father
p891
tp892
asVH. gardneri
p893
(lp894
(V/wiki/Hydrothrix_gardneri
p895
VHydrothrix gardneri
p896
tp897
a(V/w/index.php?title=Hypoxis_gardneri&action=edit&redlink=1
p898
VHypoxis gardneri (page does not exist)
p899
tp900
asVH. giganteus
p901
(lp902
(V/wiki/Hagryphus_giganteus
p903
VHagryphus giganteus
p904
tp905
a(V/wiki/Helianthus_giganteus
p906
VHelianthus giganteus
p907
tp908
a(V/wiki/Hemidactylus_giganteus
p909
VHemidactylus giganteus
p910
tp911
a(V/wiki/Herpetosiphon_giganteus
p912
VHerpetosiphon giganteus
p913
tp914
a(V/wiki/Hirundapus_giganteus
p915
VHirundapus giganteus
p916
tp917
asVH. gigas
p918
(lp919
(V/wiki/Hyaenodon_gigas
p920
VHyaenodon gigas
p921
tp922
a(V/wiki/Hydrodamalis_gigas
p923
VHydrodamalis gigas
p924
tp925
a(V/wiki/Hydrodynastes_gigas
p926
VHydrodynastes gigas
p927
tp928
a(V/wiki/Harpactira_gigas
p929
VHarpactira gigas
p930
tp931
a(V/wiki/Hysterocrates_gigas
p932
VHysterocrates gigas
p933
tp934
a(V/wiki/Holmskioldia_gigas
p935
VHolmskioldia gigas
p936
tp937
asVH. glaber
p938
(lp939
(V/wiki/Heterocephalus_glaber
p940
VHeterocephalus glaber
p941
tp942
a(V/wiki/Hylodes_glaber
p943
VHylodes glaber
p944
tp945
a(V/wiki/Hymenocoleus_glaber
p946
VHymenocoleus glaber
p947
tp948
asVH. glabra
p949
(lp950
(V/wiki/Herniaria_glabra
p951
VHerniaria glabra
p952
tp953
a(V/wiki/Heliamphora_heterodoxa
p954
VHeliamphora heterodoxa
p955
tp956
asVH. gouldii
p957
(lp958
(V/w/index.php?title=Hapalotis_gouldii&action=edit&redlink=1
p959
VHapalotis gouldii (page does not exist)
p960
tp961
a(V/wiki/Heintzichthys_gouldii
p962
VHeintzichthys gouldii
p963
tp964
a(V/w/index.php?title=Hydrosaurus_gouldii&action=edit&redlink=1
p965
VHydrosaurus gouldii (page does not exist)
p966
tp967
asVH. gracilis
p968
(lp969
(V/wiki/Haopterus_gracilis
p970
VHaopterus gracilis
p971
tp972
a(V/wiki/Harttia_gracilis
p973
VHarttia gracilis
p974
tp975
a(V/wiki/Hemaris_gracilis
p976
VHemaris gracilis
p977
tp978
a(V/wiki/Hemidactylus_gracilis
p979
VHemidactylus gracilis
p980
tp981
a(V/wiki/Heterophasia_gracilis
p982
VHeterophasia gracilis
p983
tp984
a(V/wiki/Hetschkia_gracilis
p985
VHetschkia gracilis
p986
tp987
a(V/w/index.php?title=Homalia_gracilis&action=edit&redlink=1
p988
VHomalia gracilis (page does not exist)
p989
tp990
a(V/wiki/Horsfieldia_gracilis
p991
VHorsfieldia gracilis
p992
tp993
a(V/wiki/Hydrangea_gracilis
p994
VHydrangea gracilis
p995
tp996
a(V/wiki/Hymenocephalus_gracilis
p997
VHymenocephalus gracilis
p998
tp999
asVH. grandis
p1000
(lp1001
(V/wiki/Hadrobunus_grandis
p1002
VHadrobunus grandis
p1003
tp1004
a(V/wiki/Haptodus_grandis
p1005
VHaptodus grandis
p1006
tp1007
a(V/wiki/Hazelia_grandis
p1008
VHazelia grandis
p1009
tp1010
a(V/wiki/Heosemys_grandis
p1011
VHeosemys grandis
p1012
tp1013
a(V/wiki/Hierodula_grandis
p1014
VHierodula grandis
p1015
tp1016
a(V/w/index.php?title=Hogna_grandis&action=edit&redlink=1
p1017
VHogna grandis (page does not exist)
p1018
tp1019
a(V/wiki/Horsfieldia_grandis
p1020
VHorsfieldia grandis
p1021
tp1022
a(V/wiki/Hylomyscus_grandis
p1023
VHylomyscus grandis
p1024
tp1025
a(V/w/index.php?title=Hypolepis_grandis&action=edit&redlink=1
p1026
VHypolepis grandis (page does not exist)
p1027
tp1028
asVH. hastata
p1029
(lp1030
(V/wiki/Hakea_hastata
p1031
VHakea hastata
p1032
tp1033
a(V/w/index.php?title=Huara_hastata&action=edit&redlink=1
p1034
VHuara hastata (page does not exist)
p1035
tp1036
a(V/wiki/Huperzia_hastata
p1037
VHuperzia hastata
p1038
tp1039
asVH. hastatus
p1040
(lp1041
(V/wiki/Heliophanus_hastatus
p1042
VHeliophanus hastatus
p1043
tp1044
a(V/w/index.php?title=Heteropaussus_hastatus&action=edit&redlink=1
p1045
VHeteropaussus hastatus (page does not exist)
p1046
tp1047
a(V/wiki/Hibiscus_hastatus
p1048
VHibiscus hastatus
p1049
tp1050
asVH. hirta
p1051
(lp1052
(V/wiki/Hirtopelta_hirta
p1053
VHirtopelta hirta
p1054
tp1055
a(V/wiki/Hydrangea_hirta
p1056
VHydrangea hirta
p1057
tp1058
a(V/wiki/Hyparrhenia_hirta
p1059
VHyparrhenia hirta
p1060
tp1061
asVH. imbricata
p1062
(lp1063
(V/wiki/Himantura_imbricata
p1064
VHimantura imbricata
p1065
tp1066
a(V/wiki/Hydrostachys_imbricata
p1067
VHydrostachys imbricata
p1068
tp1069
asVH. indica
p1070
(lp1071
(V/wiki/Heterorhabditis_indica
p1072
VHeterorhabditis indica
p1073
tp1074
a(V/wiki/Hyophorbe_indica
p1075
VHyophorbe indica
p1076
tp1077
a(V/wiki/Hystrix_indica
p1078
VHystrix indica
p1079
tp1080
asVH. indicus
p1081
(lp1082
(V/wiki/Hemidesmus_indicus
p1083
VHemidesmus indicus
p1084
tp1085
a(V/wiki/Hoplolaimus_indicus
p1086
VHoplolaimus indicus
p1087
tp1088
asVH. inornatus
p1089
(lp1090
(V/wiki/Heleioporus_inornatus
p1091
VHeleioporus inornatus
p1092
tp1093
a(V/wiki/Hemitriccus_inornatus
p1094
VHemitriccus inornatus
p1095
tp1096
a(V/wiki/Hydrophis_inornatus
p1097
VHydrophis inornatus
p1098
tp1099
a(V/wiki/Hyperolius_inornatus
p1100
VHyperolius inornatus
p1101
tp1102
asVH. intermedia
p1103
(lp1104
(V/wiki/Hexatoma_intermedia
p1105
VHexatoma intermedia
p1106
tp1107
a(V/w/index.php?title=Helina_intermedia&action=edit&redlink=1
p1108
VHelina intermedia (page does not exist)
p1109
tp1110
a(V/w/index.php?title=Heringia_intermedia&action=edit&redlink=1
p1111
VHeringia intermedia (page does not exist)
p1112
tp1113
a(V/w/index.php?title=Hilara_intermedia&action=edit&redlink=1
p1114
VHilara intermedia (page does not exist)
p1115
tp1116
a(V/wiki/Hydrogenophaga_intermedia
p1117
VHydrogenophaga intermedia
p1118
tp1119
a(V/wiki/Hyla_intermedia
p1120
VHyla intermedia
p1121
tp1122
asVH. japonicus
p1123
(lp1124
(V/wiki/Humulus_japonicus
p1125
VHumulus japonicus
p1126
tp1127
a(V/wiki/Hypomesus_japonicus
p1128
VHypomesus japonicus
p1129
tp1130
asVH. juncea
p1131
(lp1132
(V/w/index.php?title=Heliophila_juncea&action=edit&redlink=1
p1133
VHeliophila juncea (page does not exist)
p1134
tp1135
a(V/wiki/Hypoxis_juncea
p1136
VHypoxis juncea
p1137
tp1138
asVH. laeta
p1139
(lp1140
(V/w/index.php?title=Hamataliwa_laeta&action=edit&redlink=1
p1141
VHamataliwa laeta (page does not exist)
p1142
tp1143
a(V/w/index.php?title=Haworthia_laeta&action=edit&redlink=1
p1144
VHaworthia laeta (page does not exist)
p1145
tp1146
a(V/wiki/Heteropsis_laeta
p1147
VHeteropsis laeta
p1148
tp1149
a(V/w/index.php?title=Heterosternuta_laeta&action=edit&redlink=1
p1150
VHeterosternuta laeta (page does not exist)
p1151
tp1152
a(V/wiki/Himerarctia_laeta
p1153
VHimerarctia laeta
p1154
tp1155
a(V/w/index.php?title=Histopona_laeta&action=edit&redlink=1
p1156
VHistopona laeta (page does not exist)
p1157
tp1158
a(V/wiki/Holomelina_laeta
p1159
VHolomelina laeta
p1160
tp1161
a(V/wiki/Hydnochaete_laeta
p1162
VHydnochaete laeta
p1163
tp1164
a(V/wiki/Hypercompe_laeta
p1165
VHypercompe laeta
p1166
tp1167
a(V/w/index.php?title=Hypoestes_laeta&action=edit&redlink=1
p1168
VHypoestes laeta (page does not exist)
p1169
tp1170
asVH. legrandi
p1171
(lp1172
(V/wiki/Hypotacha_legrandi
p1173
VHypotacha legrandi
p1174
tp1175
a(V/wiki/Halenia_legrandi
p1176
VHalenia legrandi
p1177
tp1178
asVH. lutea
p1179
(lp1180
(V/w/index.php?title=Halichondria_lutea&action=edit&redlink=1
p1181
VHalichondria lutea (page does not exist)
p1182
tp1183
a(V/w/index.php?title=Haliclona_lutea&action=edit&redlink=1
p1184
VHaliclona lutea (page does not exist)
p1185
tp1186
a(V/w/index.php?title=Hamodes_lutea&action=edit&redlink=1
p1187
VHamodes lutea (page does not exist)
p1188
tp1189
a(V/w/index.php?title=Hapsifera_lutea&action=edit&redlink=1
p1190
VHapsifera lutea (page does not exist)
p1191
tp1192
a(V/wiki/Helicina_lutea
p1193
VHelicina lutea
p1194
tp1195
a(V/wiki/Hyperythra_lutea
p1196
VHyperythra lutea
p1197
tp1198
a(V/w/index.php?title=Hypocrea_lutea&action=edit&redlink=1
p1199
VHypocrea lutea (page does not exist)
p1200
tp1201
asVH. maculata
p1202
(lp1203
(V/wiki/Haemanota_maculata
p1204
VHaemanota maculata
p1205
tp1206
a(V/wiki/Haplonerita_maculata
p1207
VHaplonerita maculata
p1208
tp1209
a(V/wiki/Heteroscodra_maculata
p1210
VHeteroscodra maculata
p1211
tp1212
a(V/w/index.php?title=Hippobosca_maculata&action=edit&redlink=1
p1213
VHippobosca maculata (page does not exist)
p1214
tp1215
a(V/wiki/Holbrookia_maculata
p1216
VHolbrookia maculata
p1217
tp1218
a(V/w/index.php?title=Horia_maculata&action=edit&redlink=1
p1219
VHoria maculata (page does not exist)
p1220
tp1221
a(V/w/index.php?title=Hydroptila_maculata&action=edit&redlink=1
p1222
VHydroptila maculata (page does not exist)
p1223
tp1224
a(V/w/index.php?title=Hygrobia_maculata&action=edit&redlink=1
p1225
VHygrobia maculata (page does not exist)
p1226
tp1227
a(V/wiki/Hyla_maculata
p1228
VHyla maculata
p1229
tp1230
a(V/wiki/Hyperplatys_maculata
p1231
VHyperplatys maculata
p1232
tp1233
a(V/w/index.php?title=Hypochaeris_maculata&action=edit&redlink=1
p1234
VHypochaeris maculata (page does not exist)
p1235
tp1236
asVH. maculatum
p1237
(lp1238
(V/wiki/Hieracium_maculatum
p1239
VHieracium maculatum
p1240
tp1241
a(V/wiki/Hypericum_maculatum
p1242
VHypericum maculatum
p1243
tp1244
asVH. madagascariensis
p1245
(lp1246
(V/wiki/Harungana_madagascariensis
p1247
VHarungana madagascariensis
p1248
tp1249
a(V/wiki/Heterixalus_madagascariensis
p1250
VHeterixalus madagascariensis
p1251
tp1252
a(V/wiki/Hickelia_madagascariensis
p1253
VHickelia madagascariensis
p1254
tp1255
a(V/wiki/Hippopotamus_madagascariensis
p1256
VHippopotamus madagascariensis
p1257
tp1258
a(V/wiki/Hypsipetes_madagascariensis
p1259
VHypsipetes madagascariensis
p1260
tp1261
asVH. maxima
p1262
(lp1263
(V/wiki/Heteropoda_maxima
p1264
VHeteropoda maxima
p1265
tp1266
a(V/wiki/Heuchera_maxima
p1267
VHeuchera maxima
p1268
tp1269
a(V/wiki/Honduriella_maxima
p1270
VHonduriella maxima
p1271
tp1272
a(V/w/index.php?title=Hydrostachys_maxima&action=edit&redlink=1
p1273
VHydrostachys maxima (page does not exist)
p1274
tp1275
a(V/wiki/Hyla_maxima
p1276
VHyla maxima
p1277
tp1278
asVH. melanoleuca
p1279
(lp1280
(V/wiki/Heterophasia_melanoleuca
p1281
VHeterophasia melanoleuca
p1282
tp1283
a(V/wiki/Hypercompe_melanoleuca
p1284
VHypercompe melanoleuca
p1285
tp1286
asVH. metallica
p1287
(lp1288
(V/wiki/Harrisina_metallica
p1289
VHarrisina metallica
p1290
tp1291
a(V/wiki/Hyposmocoma_metallica
p1292
VHyposmocoma metallica
p1293
tp1294
asVH. microdon
p1295
(lp1296
(V/wiki/Haplochromis_microdon
p1297
VHaplochromis microdon
p1298
tp1299
a(V/wiki/Hyaenodon_microdon
p1300
VHyaenodon microdon
p1301
tp1302
asVH. militaris
p1303
(lp1304
(V/wiki/Haematoderus_militaris
p1305
VHaematoderus militaris
p1306
tp1307
a(V/wiki/Hindsiclava_militaris
p1308
VHindsiclava militaris
p1309
tp1310
asVH. minuta
p1311
(lp1312
(V/wiki/Hauffenia_minuta
p1313
VHauffenia minuta
p1314
tp1315
a(V/wiki/Helicoverpa_minuta
p1316
VHelicoverpa minuta
p1317
tp1318
asVH. Mitchell
p1319
(lp1320
(V/wiki/Harlan_Erwin_Mitchell
p1321
VHarlan Erwin Mitchell
p1322
tp1323
a(V/wiki/H._Mitchell_(Hampshire_cricketer)
p1324
VH. Mitchell (Hampshire cricketer)
p1325
tp1326
asVH. mitchelli
p1327
(lp1328
(V/w/index.php?title=Hemirrhagus_mitchelli&action=edit&redlink=1
p1329
VHemirrhagus mitchelli (page does not exist)
p1330
tp1331
a(V/wiki/Hyperolius_mitchelli
p1332
VHyperolius mitchelli
p1333
tp1334
asVH. monstrosus
p1335
(lp1336
(V/wiki/Hemiandrus_monstrosus
p1337
VHemiandrus monstrosus
p1338
tp1339
a(V/wiki/Homo_sapiens
p1340
VHomo sapiens
p1341
tp1342
a(V/wiki/Hypsignathus_monstrosus
p1343
VHypsignathus monstrosus
p1344
tp1345
asVH. montana
p1346
(lp1347
(V/wiki/Hechtia_montana
p1348
VHechtia montana
p1349
tp1350
a(V/wiki/Heliciopsis_montana
p1351
VHeliciopsis montana
p1352
tp1353
a(V/wiki/Hopea_montana
p1354
VHopea montana
p1355
tp1356
a(V/wiki/Horsfieldia_montana
p1357
VHorsfieldia montana
p1358
tp1359
a(V/wiki/Hovea_montana
p1360
VHovea montana
p1361
tp1362
a(V/wiki/Hudsonia_montana
p1363
VHudsonia montana
p1364
tp1365
a(V/wiki/Hybomitra_montana
p1366
VHybomitra montana
p1367
tp1368
a(V/wiki/Hyperplatys_montana
p1369
VHyperplatys montana
p1370
tp1371
asVH. montanus
p1372
(lp1373
(V/wiki/Hemicrepidius_montanus
p1374
VHemicrepidius montanus
p1375
tp1376
a(V/wiki/Henricus_montanus
p1377
VHenricus montanus
p1378
tp1379
a(V/wiki/Hyaenodon_montanus
p1380
VHyaenodon montanus
p1381
tp1382
a(V/wiki/Hyperolius_montanus
p1383
VHyperolius montanus
p1384
tp1385
asVH. nana
p1386
(lp1387
(V/wiki/Hasemania_nana
p1388
VHasemania nana
p1389
tp1390
a(V/wiki/Hemigrammocapoeta_nana
p1391
VHemigrammocapoeta nana
p1392
tp1393
a(V/wiki/Homalopoma_nana
p1394
VHomalopoma nana
p1395
tp1396
a(V/wiki/Hoplocorypha_nana
p1397
VHoplocorypha nana
p1398
tp1399
a(V/wiki/Hulsea_nana
p1400
VHulsea nana
p1401
tp1402
a(V/wiki/Hydnocarpus_nana
p1403
VHydnocarpus nana
p1404
tp1405
a(V/wiki/Hymenolepis_nana
p1406
VHymenolepis nana
p1407
tp1408
asVH. neglecta
p1409
(lp1410
(V/wiki/Helicia_neglecta
p1411
VHelicia neglecta
p1412
tp1413
a(V/wiki/Hydrobia_neglecta
p1414
VHydrobia neglecta
p1415
tp1416
asVH. nepalensis
p1417
(lp1418
(V/w/index.php?title=Haemaphysalis_nepalensis&action=edit&redlink=1
p1419
VHaemaphysalis nepalensis (page does not exist)
p1420
tp1421
a(V/w/index.php?title=Hamaspora_nepalensis&action=edit&redlink=1
p1422
VHamaspora nepalensis (page does not exist)
p1423
tp1424
a(V/w/index.php?title=Haplocosmia_nepalensis&action=edit&redlink=1
p1425
VHaplocosmia nepalensis (page does not exist)
p1426
tp1427
a(V/w/index.php?title=Haploporus_nepalensis&action=edit&redlink=1
p1428
VHaploporus nepalensis (page does not exist)
p1429
tp1430
a(V/wiki/Hedera_nepalensis
p1431
VHedera nepalensis
p1432
tp1433
a(V/w/index.php?title=Hemisodorcus_nepalensis&action=edit&redlink=1
p1434
VHemisodorcus nepalensis (page does not exist)
p1435
tp1436
a(V/wiki/Hepialiscus_nepalensis
p1437
VHepialiscus nepalensis
p1438
tp1439
a(V/w/index.php?title=Hersilia_nepalensis&action=edit&redlink=1
p1440
VHersilia nepalensis (page does not exist)
p1441
tp1442
a(V/w/index.php?title=Heterometrus_nepalensis&action=edit&redlink=1
p1443
VHeterometrus nepalensis (page does not exist)
p1444
tp1445
a(V/w/index.php?title=Hexatoma_nepalensis&action=edit&redlink=1
p1446
VHexatoma nepalensis (page does not exist)
p1447
tp1448
a(V/w/index.php?title=Himalmartensus_nepalensis&action=edit&redlink=1
p1449
VHimalmartensus nepalensis (page does not exist)
p1450
tp1451
a(V/w/index.php?title=Himalphalangium_nepalensis&action=edit&redlink=1
p1452
VHimalphalangium nepalensis (page does not exist)
p1453
tp1454
a(V/w/index.php?title=Hoplia_nepalensis&action=edit&redlink=1
p1455
VHoplia nepalensis (page does not exist)
p1456
tp1457
a(V/wiki/Hydrelia_nepalensis
p1458
VHydrelia nepalensis
p1459
tp1460
a(V/w/index.php?title=Hydrocotyle_nepalensis&action=edit&redlink=1
p1461
VHydrocotyle nepalensis (page does not exist)
p1462
tp1463
a(V/w/index.php?title=Hydroscapha_nepalensis&action=edit&redlink=1
p1464
VHydroscapha nepalensis (page does not exist)
p1465
tp1466
asVH. niger
p1467
(lp1468
(V/wiki/Helleborus_niger
p1469
VHelleborus niger
p1470
tp1471
a(V/w/index.php?title=Hemiargyra_niger&action=edit&redlink=1
p1472
VHemiargyra niger (page does not exist)
p1473
tp1474
a(V/wiki/Hyoscyamus_niger
p1475
VHyoscyamus niger
p1476
tp1477
a(V/wiki/Hippotragus_niger
p1478
VHippotragus niger
p1479
tp1480
asVH. nigra
p1481
(lp1482
(V/wiki/Hoplocorypha_nigra
p1483
VHoplocorypha nigra
p1484
tp1485
a(V/wiki/Hopea_nigra
p1486
VHopea nigra
p1487
tp1488
asVH. nigricans
p1489
(lp1490
(V/wiki/Haplochromis_nigricans
p1491
VHaplochromis nigricans
p1492
tp1493
a(V/wiki/Heliotropium_nigricans
p1494
VHeliotropium nigricans
p1495
tp1496
a(V/w/index.php?title=Hexatoma_nigricans&action=edit&redlink=1
p1497
VHexatoma nigricans (page does not exist)
p1498
tp1499
a(V/wiki/Hirundo_nigricans
p1500
VHirundo nigricans
p1501
tp1502
a(V/wiki/Hypoplectrus_nigricans
p1503
VHypoplectrus nigricans
p1504
tp1505
a(V/wiki/Hypentelium_nigricans
p1506
VHypentelium nigricans
p1507
tp1508
asVH. nobilis
p1509
(lp1510
(V/wiki/Hippelates_nobilis
p1511
VHippelates nobilis
p1512
tp1513
a(V/wiki/Hypophthalmichthys_nobilis
p1514
VHypophthalmichthys nobilis
p1515
tp1516
asVH. orientalis
p1517
(lp1518
(V/wiki/Halorubrum_orientalis
p1519
VHalorubrum orientalis
p1520
tp1521
a(V/wiki/Helleborus_orientalis
p1522
VHelleborus orientalis
p1523
tp1524
a(V/wiki/Heleophryne_orientalis
p1525
VHeleophryne orientalis
p1526
tp1527
a(V/wiki/Huaxiagnathus_orientalis
p1528
VHuaxiagnathus orientalis
p1529
tp1530
a(V/wiki/Hyacinthus_orientalis
p1531
VHyacinthus orientalis
p1532
tp1533
asVH. pallida
p1534
(lp1535
(V/wiki/Heisteria_pallida
p1536
VHeisteria pallida
p1537
tp1538
a(V/wiki/Heliocheilus_pallida
p1539
VHeliocheilus pallida
p1540
tp1541
a(V/wiki/Heteropsis_pallida
p1542
VHeteropsis pallida
p1543
tp1544
asVH. petiolaris
p1545
(lp1546
(V/wiki/Hakea_petiolaris
p1547
VHakea petiolaris
p1548
tp1549
a(V/wiki/Helianthus_petiolaris
p1550
VHelianthus petiolaris
p1551
tp1552
a(V/wiki/Hydrangea_petiolaris
p1553
VHydrangea petiolaris
p1554
tp1555
a(V/wiki/Hylaeorchis_petiolaris
p1556
VHylaeorchis petiolaris
p1557
tp1558
asVH. phyllostachydis
p1559
(lp1560
(V/w/index.php?title=Hypocrea_phyllostachydis&action=edit&redlink=1
p1561
VHypocrea phyllostachydis (page does not exist)
p1562
tp1563
a(V/wiki/Hypocreopsis_phyllostachydis
p1564
VHypocreopsis phyllostachydis
p1565
tp1566
asVH. poeppigii
p1567
(lp1568
(V/w/index.php?title=Hibiscus_poeppigii&action=edit&redlink=1
p1569
VHibiscus poeppigii (page does not exist)
p1570
tp1571
a(V/wiki/Hypolepis_poeppigii
p1572
VHypolepis poeppigii
p1573
tp1574
asVH. polyclada
p1575
(lp1576
(V/wiki/Hatschbachiella_polyclada
p1577
VHatschbachiella polyclada
p1578
tp1579
a(V/w/index.php?title=Hibbertia_polyclada&action=edit&redlink=1
p1580
VHibbertia polyclada (page does not exist)
p1581
tp1582
asVH. polymorpha
p1583
(lp1584
(V/wiki/Hansenula_polymorpha
p1585
VHansenula polymorpha
p1586
tp1587
a(V/wiki/Hedypnois_polymorpha
p1588
VHedypnois polymorpha
p1589
tp1590
a(V/w/index.php?title=Heterolocha_polymorpha&action=edit&redlink=1
p1591
VHeterolocha polymorpha (page does not exist)
p1592
tp1593
a(V/wiki/Heteropurpura_polymorpha
p1594
VHeteropurpura polymorpha
p1595
tp1596
a(V/w/index.php?title=Hydra_polymorpha&action=edit&redlink=1
p1597
VHydra polymorpha (page does not exist)
p1598
tp1599
a(V/w/index.php?title=Hydrostachys_polymorpha&action=edit&redlink=1
p1600
VHydrostachys polymorpha (page does not exist)
p1601
tp1602
a(V/w/index.php?title=Hymenachne_polymorpha&action=edit&redlink=1
p1603
VHymenachne polymorpha (page does not exist)
p1604
tp1605
a(V/w/index.php?title=Hyphomonas_polymorpha&action=edit&redlink=1
p1606
VHyphomonas polymorpha (page does not exist)
p1607
tp1608
a(V/w/index.php?title=Hypoestes_polymorpha&action=edit&redlink=1
p1609
VHypoestes polymorpha (page does not exist)
p1610
tp1611
asVH. portoricensis
p1612
(lp1613
(V/wiki/Harrisia_portoricensis
p1614
VHarrisia portoricensis
p1615
tp1616
a(V/w/index.php?title=Hohenbergia_portoricensis&action=edit&redlink=1
p1617
VHohenbergia portoricensis (page does not exist)
p1618
tp1619
a(V/wiki/Hygrophila_portoricensis
p1620
VHygrophila portoricensis
p1621
tp1622
asVH. Ramat-Gan
p1623
(lp1624
(V/wiki/Hakoah_Amidar_Ramat_Gan_F.C.
p1625
VHakoah Amidar Ramat Gan F.C.
p1626
tp1627
a(V/wiki/Hapoel_Ramat_Gan_Giv%27atayim_F.C.
p1628
VHapoel Ramat Gan Giv'atayim F.C.
p1629
tp1630
asVH. ridleyi
p1631
(lp1632
(V/wiki/Hipposideros_ridleyi
p1633
VHipposideros ridleyi
p1634
tp1635
a(V/wiki/Hohenbergia_ridleyi
p1636
VHohenbergia ridleyi
p1637
tp1638
a(V/wiki/Hyperaulax_ridleyi
p1639
VHyperaulax ridleyi
p1640
tp1641
asVH. robusta
p1642
(lp1643
(V/wiki/Harpa_robusta
p1644
VHarpa robusta
p1645
tp1646
a(V/wiki/Hydrangea_robusta
p1647
VHydrangea robusta
p1648
tp1649
asVH. robustus
p1650
(lp1651
(V/wiki/Heilprinia_robustus
p1652
VHeilprinia robustus
p1653
tp1654
a(V/wiki/Hippoglossoides_robustus
p1655
VHippoglossoides robustus
p1656
tp1657
a(V/wiki/Hyperolius_robustus
p1658
VHyperolius robustus
p1659
tp1660
asVH. rosea
p1661
(lp1662
(V/wiki/Haliotis_rosea
p1663
VHaliotis rosea
p1664
tp1665
a(V/wiki/Hechtia_rosea
p1666
VHechtia rosea
p1667
tp1668
a(V/wiki/Schlumbergera_rosea
p1669
VSchlumbergera rosea
p1670
tp1671
asVH. roseus
p1672
(lp1673
(V/wiki/Hydrocoloeus_roseus
p1674
VHydrocoloeus roseus
p1675
tp1676
a(V/wiki/Hypomyces_roseus
p1677
VHypomyces roseus
p1678
tp1679
asVH. rubra
p1680
(lp1681
(V/wiki/Haliotis_rubra
p1682
VHaliotis rubra
p1683
tp1684
a(V/wiki/Halocaridina_rubra
p1685
VHalocaridina rubra
p1686
tp1687
a(V/wiki/Hypotrix_rubra
p1688
VHypotrix rubra
p1689
tp1690
asVH. salicifolia
p1691
(lp1692
(V/wiki/Hakea_salicifolia
p1693
VHakea salicifolia
p1694
tp1695
a(V/wiki/Hebe_salicifolia
p1696
VHebe salicifolia
p1697
tp1698
a(V/wiki/Heimia_salicifolia
p1699
VHeimia salicifolia
p1700
tp1701
a(V/wiki/Heteromeles_salicifolia
p1702
VHeteromeles salicifolia
p1703
tp1704
a(V/w/index.php?title=Heteropsis_salicifolia&action=edit&redlink=1
p1705
VHeteropsis salicifolia (page does not exist)
p1706
tp1707
a(V/w/index.php?title=Hippophae_salicifolia&action=edit&redlink=1
p1708
VHippophae salicifolia (page does not exist)
p1709
tp1710
a(V/w/index.php?title=Hygrophila_salicifolia&action=edit&redlink=1
p1711
VHygrophila salicifolia (page does not exist)
p1712
tp1713
a(V/w/index.php?title=Hypoestes_salicifolia&action=edit&redlink=1
p1714
VHypoestes salicifolia (page does not exist)
p1715
tp1716
asVH. sancta
p1717
(lp1718
(V/wiki/Halcyon_sancta
p1719
VHalcyon sancta
p1720
tp1721
a(V/wiki/Hadena_sancta
p1722
VHadena sancta
p1723
tp1724
asVH. sanguinea
p1725
(lp1726
(V/w/index.php?title=Heuchera_sanguinea&action=edit&redlink=1
p1727
VHeuchera sanguinea (page does not exist)
p1728
tp1729
a(V/wiki/Himatione_sanguinea
p1730
VHimatione sanguinea
p1731
tp1732
a(V/wiki/Holmskioldia_sanguinea
p1733
VHolmskioldia sanguinea
p1734
tp1735
asVH. scandens
p1736
(lp1737
(V/wiki/Hibbertia_scandens
p1738
VHibbertia scandens
p1739
tp1740
a(V/wiki/Humulus_scandens
p1741
VHumulus scandens
p1742
tp1743
asVH. spinosa
p1744
(lp1745
(V/w/index.php?title=Halocynthia_spinosa&action=edit&redlink=1
p1746
VHalocynthia spinosa (page does not exist)
p1747
tp1748
a(V/w/index.php?title=Harmothoe_spinosa&action=edit&redlink=1
p1749
VHarmothoe spinosa (page does not exist)
p1750
tp1751
a(V/w/index.php?title=Harpactirella_spinosa&action=edit&redlink=1
p1752
VHarpactirella spinosa (page does not exist)
p1753
tp1754
a(V/wiki/Heosemys_spinosa
p1755
VHeosemys spinosa
p1756
tp1757
a(V/wiki/Hippomane_spinosa
p1758
VHippomane spinosa
p1759
tp1760
a(V/wiki/Hormathophylla_spinosa
p1761
VHormathophylla spinosa
p1762
tp1763
a(V/w/index.php?title=Hydroptila_spinosa&action=edit&redlink=1
p1764
VHydroptila spinosa (page does not exist)
p1765
tp1766
asVH. Thompson
p1767
(lp1768
(V/wiki/H._Thompson_(rugby_league)
p1769
VH. Thompson (rugby league)
p1770
tp1771
a(V/wiki/H._Thompson_(Sheffield_cricketer)
p1772
VH. Thompson (Sheffield cricketer)
p1773
tp1774
a(V/wiki/H._S._Thompson
p1775
VH. S. Thompson
p1776
tp1777
asVH. tricolor
p1778
(lp1779
(V/wiki/Hemileuca_tricolor
p1780
VHemileuca tricolor
p1781
tp1782
a(V/wiki/Hestiochora_tricolor
p1783
VHestiochora tricolor
p1784
tp1785
a(V/wiki/Heterixalus_tricolor
p1786
VHeterixalus tricolor
p1787
tp1788
a(V/wiki/Holacanthus_tricolor
p1789
VHolacanthus tricolor
p1790
tp1791
a(V/wiki/Hypselodoris_tricolor
p1792
VHypselodoris tricolor
p1793
tp1794
asVH. velifer
p1795
(lp1796
(V/wiki/Haplochromis_velifer
p1797
VHaplochromis velifer
p1798
tp1799
a(V/wiki/Histiodraco_velifer
p1800
VHistiodraco velifer
p1801
tp1802
asVH. verticillata
p1803
(lp1804
(V/wiki/Hedyotis_verticillata
p1805
VHedyotis verticillata
p1806
tp1807
a(V/wiki/Hydrilla_verticillata
p1808
VHydrilla verticillata
p1809
tp1810
asVH. vulgaris
p1811
(lp1812
(V/wiki/Hippuris_vulgaris
p1813
VHippuris vulgaris
p1814
tp1815
a(V/wiki/Hydra_vulgaris
p1816
VHydra vulgaris
p1817
tp1818
a(V/wiki/Hydrocotyle_vulgaris
p1819
VHydrocotyle vulgaris
p1820
tp1821
asVH. W. Lawton
p1822
(lp1823
(V/wiki/Harold_Lawton
p1824
VHarold Lawton
p1825
tp1826
a(V/wiki/Henry_Ware_Lawton
p1827
VHenry Ware Lawton
p1828
tp1829
asVH.A.A.R.P.
p1830
(lp1831
(V/wiki/High_Frequency_Active_Auroral_Research_Program
p1832
VHigh Frequency Active Auroral Research Program
p1833
tp1834
a(V/wiki/HAARP_(album)
p1835
VHAARP (album)
p1836
tp1837
asVH.G. Stoker
p1838
(lp1839
(V/wiki/Hendrik_G._Stoker
p1840
VHendrik G. Stoker
p1841
tp1842
a(V/wiki/Henry_Hugh_Gordon_Stoker
p1843
VHenry Hugh Gordon Stoker
p1844
tp1845
asVH.R. 1
p1846
(lp1847
(V/wiki/Gold_Standard_Act
p1848
VGold Standard Act
p1849
tp1850
a(V/wiki/Agricultural_Marketing_Act_of_1929
p1851
VAgricultural Marketing Act of 1929
p1852
tp1853
a(V/wiki/Ethics_in_Government_Act
p1854
VEthics in Government Act
p1855
tp1856
a(V/wiki/Family_and_Medical_Leave_Act_of_1993
p1857
VFamily and Medical Leave Act of 1993
p1858
tp1859
a(V/wiki/Congressional_Accountability_Act_of_1995
p1860
VCongressional Accountability Act of 1995
p1861
tp1862
a(V/wiki/No_Child_Left_Behind_Act
p1863
VNo Child Left Behind Act
p1864
tp1865
a(V/wiki/Medicare_Prescription_Drug,_Improvement,_and_Modernization_Act
p1866
VMedicare Prescription Drug, Improvement, and Modernization Act
p1867
tp1868
a(V/wiki/Implementing_Recommendations_of_the_9/11_Commission_Act_of_2007
p1869
VImplementing Recommendations of the 9/11 Commission Act of 2007
p1870
tp1871
a(V/wiki/American_Recovery_and_Reinvestment_Act_of_2009
p1872
VAmerican Recovery and Reinvestment Act of 2009
p1873
tp1874
a(V/wiki/Office_of_Compliance_Administrative_and_Technical_Corrections_Act_of_2015
p1875
VOffice of Compliance Administrative and Technical Corrections Act of 2015
p1876
tp1877
a(V/wiki/Tax_Cuts_and_Jobs_Act_of_2017
p1878
VTax Cuts and Jobs Act of 2017
p1879
tp1880
a(V/wiki/For_The_People_Act_of_2019
p1881
VFor The People Act of 2019
p1882
tp1883
asVH.R. 6
p1884
(lp1885
(V/wiki/21st_Century_Cures_Act
p1886
V21st Century Cures Act
p1887
tp1888
a(V/wiki/Domestic_Prosperity_and_Global_Freedom_Act
p1889
VDomestic Prosperity and Global Freedom Act
p1890
tp1891
asVH&H
p1892
(lp1893
(V/wiki/H%26H_Bagels
p1894
VH&H Bagels
p1895
tp1896
a(V/w/index.php?title=H%26H_Classics&action=edit&redlink=1
p1897
VH&H Classics (page does not exist)
p1898
tp1899
a(V/wiki/H%26H_Restaurant
p1900
VH&H Restaurant
p1901
tp1902
a(V/wiki/H%26H_Shooting_Sports
p1903
VH&H Shooting Sports
p1904
tp1905
a(V/wiki/Holland_%26_Holland
p1906
VHolland & Holland
p1907
tp1908
a(V/wiki/Howe_%26_Howe_Technologies
p1909
VHowe & Howe Technologies
p1910
tp1911
asVH&H Magnum
p1912
(lp1913
(V/wiki/.244_H%26H_Magnum
p1914
V.244 H&H Magnum
p1915
tp1916
a(V/wiki/.275_H%26H_Magnum
p1917
V.275 H&H Magnum
p1918
tp1919
a(V/wiki/.300_H%26H_Magnum
p1920
V.300 H&H Magnum
p1921
tp1922
a(V/wiki/.375_Holland_%26_Holland_Magnum
p1923
V.375 Holland & Holland Magnum
p1924
tp1925
a(V/wiki/.400_H%26H_Magnum
p1926
V.400 H&H Magnum
p1927
tp1928
a(V/wiki/.465_H%26H_Magnum
p1929
V.465 H&H Magnum
p1930
tp1931
asVH&I
p1932
(lp1933
(V/wiki/Highbury_%26_Islington_station
p1934
VHighbury & Islington station
p1935
tp1936
a(V/wiki/Heroes_%26_Icons
p1937
VHeroes & Icons
p1938
tp1939
asVH&K
p1940
(lp1941
(V/wiki/Heckler_%26_Koch
p1942
VHeckler & Koch
p1943
tp1944
a(V/wiki/Hughes_%26_Kettner
p1945
VHughes & Kettner
p1946
tp1947
a(V/wiki/Harold_%26_Kumar
p1948
VHarold & Kumar
p1949
tp1950
a(V/wiki/Harold_%26_Kumar_Go_to_White_Castle
p1951
VHarold & Kumar Go to White Castle
p1952
tp1953
a(V/wiki/Harold_%26_Kumar_Escape_from_Guantanamo_Bay
p1954
VHarold & Kumar Escape from Guantanamo Bay
p1955
tp1956
a(V/wiki/Hampstead_and_Kilburn
p1957
VHampstead and Kilburn
p1958
tp1959
a(V/wiki/H_and_K_lines
p1960
VH and K lines
p1961
tp1962
asVH&M (disambiguation)
p1963
(lp1964
(V/wiki/Harold_and_Maude
p1965
VHarold and Maude
p1966
tp1967
a(V/wiki/Hartley_%26_Marks_Publishers
p1968
VHartley & Marks Publishers
p1969
tp1970
a(V/wiki/Howard_and_Moore_Complete_Checklist_of_the_Birds_of_the_World
p1971
VHoward and Moore Complete Checklist of the Birds of the World
p1972
tp1973
a(V/wiki/PATH_(rail_system)
p1974
VPATH (rail system)
p1975
tp1976
asVH&P
p1977
(lp1978
(V/wiki/Medical_history
p1979
VMedical history
p1980
tp1981
a(V/wiki/Physical_examination
p1982
VPhysical examination
p1983
tp1984
asVH&R
p1985
(lp1986
(V/wiki/H%26R_Block
p1987
VH&R Block
p1988
tp1989
a(V/wiki/H%26R_Firearms
p1990
VH&R Firearms
p1991
tp1992
asVH&S
p1993
(lp1994
(V/wiki/Health_and_safety
p1995
VHealth and safety
p1996
tp1997
a(V/wiki/Head_%26_Shoulders
p1998
VHead & Shoulders
p1999
tp2000
a(V/wiki/Head_and_shoulders_(chart_pattern)
p2001
VHead and shoulders (chart pattern)
p2002
tp2003
a(V/wiki/Hack_and_slash
p2004
VHack and slash
p2005
tp2006
a(V/wiki/Headquarters_and_Service_Company
p2007
VHeadquarters and Service Company
p2008
tp2009
a(V/wiki/Heidrick_%26_Struggles
p2010
VHeidrick & Struggles
p2011
tp2012
asVH&W
p2013
(lp2014
(V/wiki/Harland_and_Wolff
p2015
VHarland and Wolff
p2016
tp2017
a(V/wiki/Hereford_and_Worcester
p2018
VHereford and Worcester
p2019
tp2020
a(V/wiki/Hartmann_%26_Weiss
p2021
VHartmann & Weiss
p2022
tp2023
asVH+
p2024
(lp2025
(V/wiki/Transhumanist_Party
p2026
VTranshumanist Party
p2027
tp2028
asVH0
p2029
(lp2030
(V/wiki/H0_scale
p2031
VH0 scale
p2032
tp2033
a(V/wiki/Higgs_boson
p2034
VHiggs boson
p2035
tp2036
a(V/wiki/Hammett_acidity_function
p2037
VHammett acidity function
p2038
tp2039
a(V/wiki/HMCS_Restigouche_(H00)
p2040
VHMCS Restigouche (H00)
p2041
tp2042
a(V/wiki/Hubble_constant
p2043
VHubble constant
p2044
tp2045
a(V/wiki/Null_hypothesis
p2046
VNull hypothesis
p2047
tp2048
a(V/wiki/Stye
p2049
VStye
p2050
tp2051
asVH1
p2052
(lp2053
(V#Science
p2054
Ntp2055
a(V#Technology
p2056
Ntp2057
a(V#Transportation
p2058
Ntp2059
a(V#Aviation
p2060
Ntp2061
a(V#Motor_vehicles
p2062
Ntp2063
a(V#Motorcycles
p2064
Ntp2065
a(V#Ships
p2066
Ntp2067
a(V#Rail
p2068
Ntp2069
a(V#Other_uses
p2070
Ntp2071
a(V#See_also
p2072
Ntp2073
asVH2
p2074
(lp2075
(V#Arts_and_media
p2076
Ntp2077
a(V#Computing
p2078
Ntp2079
a(V#Roads_and_transportation
p2080
Ntp2081
a(V#Science_and_mathematics
p2082
Ntp2083
a(V#Biology_and_medicine
p2084
Ntp2085
a(V#Chemistry
p2086
Ntp2087
a(V#Other_uses_in_science_and_mathematics
p2088
Ntp2089
a(V#Vehicles
p2090
Ntp2091
a(V#Air_and_space
p2092
Ntp2093
a(V#Rail
p2094
Ntp2095
a(V#Road
p2096
Ntp2097
a(V#Sea
p2098
Ntp2099
a(V#Other_uses
p2100
Ntp2101
a(V#See_also
p2102
Ntp2103
asVH2A
p2104
(lp2105
(V/wiki/Histone_H2A
p2106
VHistone H2A
p2107
tp2108
a(V/wiki/H-IIA
p2109
VH-IIA
p2110
tp2111
a(V/wiki/H-2A_Visa
p2112
VH-2A Visa
p2113
tp2114
asVH2B
p2115
(lp2116
(V/wiki/H-2B_visa
p2117
VH-2B visa
p2118
tp2119
a(V/wiki/Heavens_to_Betsy
p2120
VHeavens to Betsy
p2121
tp2122
a(V/wiki/Histone_H2B
p2123
VHistone H2B
p2124
tp2125
a(V/wiki/H-IIB
p2126
VH-IIB
p2127
tp2128
a(V/wiki/Help_to_Buy
p2129
VHelp to Buy
p2130
tp2131
asVH2O (disambiguation)
p2132
(lp2133
(V#Entertainment
p2134
Ntp2135
a(V#Music
p2136
Ntp2137
a(V#Film_and_television
p2138
Ntp2139
a(V#Other
p2140
Ntp2141
a(V#See_also
p2142
Ntp2143
a(V#References
p2144
Ntp2145
asVH2R
p2146
(lp2147
(V/wiki/BMW_H2R
p2148
VBMW H2R
p2149
tp2150
a(V/wiki/Kawasaki_H2_Mach_IV
p2151
VKawasaki H2 Mach IV
p2152
tp2153
a(V/wiki/Kawasaki_Ninja_H2R
p2154
VKawasaki Ninja H2R
p2155
tp2156
asVH2S
p2157
(lp2158
(V/wiki/Dynali_H2S
p2159
VDynali H2S
p2160
tp2161
a(V/wiki/Hydrogen_sulfide
p2162
VHydrogen sulfide
p2163
tp2164
a(V/wiki/H2S_radar
p2165
VH2S radar
p2166
tp2167
a(V/wiki/How_to_Succeed_in_Business_Without_Really_Trying
p2168
VHow to Succeed in Business Without Really Trying
p2169
tp2170
asVH3
p2171
(lp2172
(V/wiki/Happy_Hustle_High
p2173
VHappy Hustle High
p2174
tp2175
a(V/wiki/H3_(film)
p2176
VH3 (film)
p2177
tp2178
a(V/wiki/H3h3Productions
p2179
VH3h3Productions
p2180
tp2181
asVH3K27
p2182
(lp2183
(V/wiki/H3K27ac
p2184
VH3K27ac
p2185
tp2186
a(V/wiki/H3K27me3
p2187
VH3K27me3
p2188
tp2189
asVH4
p2190
(lp2191
(V#Biology_and_medicine
p2192
Ntp2193
a(V#Technology
p2194
Ntp2195
a(V#Transport
p2196
Ntp2197
a(V#Automobiles_and_roads
p2198
Ntp2199
a(V#Aviation
p2200
Ntp2201
a(V#Ships_and_submarines
p2202
Ntp2203
a(V#Trains
p2204
Ntp2205
a(V#Other_uses
p2206
Ntp2207
a(V#See_also
p2208
Ntp2209
asVH4H
p2210
(lp2211
(V/wiki/Habitat_for_Humanity
p2212
VHabitat for Humanity
p2213
tp2214
a(V/wiki/Help_for_Heroes
p2215
VHelp for Heroes
p2216
tp2217
a(V/wiki/Hiro_H4H
p2218
VHiro H4H
p2219
tp2220
asVH5
p2221
(lp2222
(V#Business
p2223
Ntp2224
a(V#Science
p2225
Ntp2226
a(V#Technology
p2227
Ntp2228
a(V#Transportation
p2229
Ntp2230
a(V#Military
p2231
Ntp2232
a(V#See_also
p2233
Ntp2234
asVH5N1 flu
p2235
(lp2236
(V/wiki/Influenza_A_virus_subtype_H5N1
p2237
VInfluenza A virus subtype H5N1
p2238
tp2239
a(V/wiki/Influenza_vaccine#H5N1
p2240
VInfluenza vaccine
p2241
tp2242
a(V/wiki/H5N1_clinical_trials
p2243
VH5N1 clinical trials
p2244
tp2245
a(V/wiki/Transmission_and_infection_of_H5N1
p2246
VTransmission and infection of H5N1
p2247
tp2248
asVH6
p2249
(lp2250
(V#Transportation
p2251
Ntp2252
a(V#Aircraft
p2253
Ntp2254
a(V#Watercraft
p2255
Ntp2256
a(V#Other_vehicles
p2257
Ntp2258
a(V#Roads
p2259
Ntp2260
a(V#Biology_and_medicine
p2261
Ntp2262
a(V#Other_uses
p2263
Ntp2264
asVH7
p2265
(lp2266
(V/wiki/H7_Chaffron_Way
p2267
VH7 Chaffron Way
p2268
tp2269
a(V/wiki/British_NVC_community_H7
p2270
VBritish NVC community H7
p2271
tp2272
a(V/wiki/DSC-H7
p2273
VDSC-H7
p2274
tp2275
a(V/wiki/Halloween_H20
p2276
VHalloween H20
p2277
tp2278
a(V/w/index.php?title=Highway_H07_(Ukraine)&action=edit&redlink=1
p2279
VHighway H07 (Ukraine) (page does not exist)
p2280
tp2281
a(V/wiki/HMS_H7
p2282
VHMS H7
p2283
tp2284
a(V/wiki/HMS_Defender_(H07)
p2285
VHMS Defender (H07)
p2286
tp2287
a(V/wiki/Influenza_A_virus_subtype_H7_(disambiguation)
p2288
VInfluenza A virus subtype H7 (disambiguation)
p2289
tp2290
a(V/wiki/USS_H-7_(SS-150)
p2291
VUSS H-7 (SS-150)
p2292
tp2293
a(V/w/index.php?title=Highland-Winet_Airport&action=edit&redlink=1
p2294
VHighland-Winet Airport (page does not exist)
p2295
tp2296
a(V/wiki/H7_(monogram)
p2297
VH7 (monogram)
p2298
tp2299
a(V/wiki/H7_(lamp)
p2300
VH7 (lamp)
p2301
tp2302
asVH8
p2303
(lp2304
(V/wiki/H-8_bomber
p2305
VH-8 bomber
p2306
tp2307
a(V/wiki/H8_Family
p2308
VH8 Family
p2309
tp2310
a(V/wiki/PIC_microcontroller#Hycon
p2311
VPIC microcontroller
p2312
tp2313
a(V/wiki/H-8_(film)
p2314
VH-8 (film)
p2315
tp2316
a(V/wiki/H8_Standing_Way
p2317
VH8 Standing Way
p2318
tp2319
a(V/w/index.php?title=British_NVC_community_H8&action=edit&redlink=1
p2320
VBritish NVC community H8 (page does not exist)
p2321
tp2322
a(V/wiki/Hagstr%C3%B6m_H8
p2323
VHagstrm H8
p2324
tp2325
a(V/w/index.php?title=Highway_H08_(Ukraine)&action=edit&redlink=1
p2326
VHighway H08 (Ukraine) (page does not exist)
p2327
tp2328
a(V/wiki/Heathkit_H-8
p2329
VHeathkit H-8
p2330
tp2331
a(V/wiki/HMS_H8
p2332
VHMS H8
p2333
tp2334
a(V/wiki/HMS_Eclipse_(H08)
p2335
VHMS Eclipse (H08)
p2336
tp2337
a(V/wiki/PRR_H8
p2338
VPRR H8
p2339
tp2340
a(V/wiki/2-6-6-6
p2341
V2-6-6-6
p2342
tp2343
a(V/wiki/USS_H-8_(SS-151)
p2344
VUSS H-8 (SS-151)
p2345
tp2346
a(V/wiki/Flat-eight_engine
p2347
VFlat-eight engine
p2348
tp2349
asVH9
p2350
(lp2351
(V/wiki/H9_(bus_route)
p2352
VH9 (bus route)
p2353
tp2354
a(V/wiki/H9_Groveway
p2355
VH9 Groveway
p2356
tp2357
a(V/wiki/H-09_(Michigan_county_highway)
p2358
VH-09 (Michigan county highway)
p2359
tp2360
a(V/w/index.php?title=British_NVC_community_H9&action=edit&redlink=1
p2361
VBritish NVC community H9 (page does not exist)
p2362
tp2363
a(V/wiki/DSC-H9
p2364
VDSC-H9
p2365
tp2366
a(V/wiki/Highway_H09_(Ukraine)
p2367
VHighway H09 (Ukraine)
p2368
tp2369
a(V/wiki/HMS_Acasta_(H09)
p2370
VHMS Acasta (H09)
p2371
tp2372
a(V/wiki/HMS_H9
p2373
VHMS H9
p2374
tp2375
a(V/wiki/HMS_Rotherham_(H09)
p2376
VHMS Rotherham (H09)
p2377
tp2378
a(V/wiki/London_Buses_route_H9
p2379
VLondon Buses route H9
p2380
tp2381
a(V/wiki/PRR_H9
p2382
VPRR H9
p2383
tp2384
a(V/wiki/USS_H-9_(SS-152)
p2385
VUSS H-9 (SS-152)
p2386
tp2387
asVH10
p2388
(lp2389
(V/wiki/Atlas_H-10
p2390
VAtlas H-10
p2391
tp2392
a(V/wiki/HMS_Encounter_(H10)
p2393
VHMS Encounter (H10)
p2394
tp2395
a(V/wiki/HMS_H10
p2396
VHMS H10
p2397
tp2398
a(V/wiki/PRR_H10
p2399
VPRR H10
p2400
tp2401
a(V/wiki/H10_Bletcham_Way
p2402
VH10 Bletcham Way
p2403
tp2404
a(V/wiki/London_Buses_route_H10
p2405
VLondon Buses route H10
p2406
tp2407
a(V/wiki/Lior%C3%A9_et_Olivier_LeO_H-10
p2408
VLior et Olivier LeO H-10
p2409
tp2410
asVH11
p2411
(lp2412
(V/wiki/H-11_(Michigan_county_highway)
p2413
VH-11 (Michigan county highway)
p2414
tp2415
a(V/w/index.php?title=British_NVC_community_H11&action=edit&redlink=1
p2416
VBritish NVC community H11 (page does not exist)
p2417
tp2418
a(V/wiki/Heathkit_H-11
p2419
VHeathkit H-11
p2420
tp2421
a(V/w/index.php?title=Highway_H11_(Ukraine)&action=edit&redlink=1
p2422
VHighway H11 (Ukraine) (page does not exist)
p2423
tp2424
a(V/wiki/HMS_Basilisk_(H11)
p2425
VHMS Basilisk (H11)
p2426
tp2427
a(V/wiki/HMS_Racehorse_(H11)
p2428
VHMS Racehorse (H11)
p2429
tp2430
a(V/wiki/HMS_H11
p2431
VHMS H11
p2432
tp2433
a(V/wiki/London_Buses_route_H11
p2434
VLondon Buses route H11
p2435
tp2436
a(V/wiki/Sanguiin_H_11
p2437
VSanguiin H 11
p2438
tp2439
asVH12
p2440
(lp2441
(V/wiki/Bell_H-12
p2442
VBell H-12
p2443
tp2444
a(V/wiki/HMS_Achates_(H12)
p2445
VHMS Achates (H12)
p2446
tp2447
a(V/wiki/HMS_H12
p2448
VHMS H12
p2449
tp2450
asVH13
p2451
(lp2452
(V/wiki/H-13_(Michigan_county_highway)
p2453
VH-13 (Michigan county highway)
p2454
tp2455
a(V/wiki/Highway_H13_(Ukraine)
p2456
VHighway H13 (Ukraine)
p2457
tp2458
a(V/wiki/London_Buses_route_H13
p2459
VLondon Buses route H13
p2460
tp2461
asVH14
p2462
(lp2463
(V/w/index.php?title=Highway_H14_(Ukraine)&action=edit&redlink=1
p2464
VHighway H14 (Ukraine) (page does not exist)
p2465
tp2466
a(V/wiki/HMS_Active_(H14)
p2467
VHMS Active (H14)
p2468
tp2469
a(V/wiki/HMAS_Stalwart_(H14)
p2470
VHMAS Stalwart (H14)
p2471
tp2472
a(V/wiki/London_Buses_route_H14
p2473
VLondon Buses route H14
p2474
tp2475
a(V/wiki/Hurricane_tie
p2476
VHurricane tie
p2477
tp2478
asVH15
p2479
(lp2480
(V/wiki/H-15_(Michigan_county_highway)
p2481
VH-15 (Michigan county highway)
p2482
tp2483
a(V/wiki/Highway_H15_(Ukraine)
p2484
VHighway H15 (Ukraine)
p2485
tp2486
a(V/w/index.php?title=British_NVC_community_H15&action=edit&redlink=1
p2487
VBritish NVC community H15 (page does not exist)
p2488
tp2489
a(V/wiki/HMS_Esk_(H15)
p2490
VHMS Esk (H15)
p2491
tp2492
a(V/wiki/HMS_Raider_(H15)
p2493
VHMS Raider (H15)
p2494
tp2495
a(V/wiki/LSWR_H15_class
p2496
VLSWR H15 class
p2497
tp2498
a(V/wiki/ICD-10_Chapter_VII
p2499
VICD-10 Chapter VII
p2500
tp2501
a(V/wiki/Federal_Reserve_Statistical_Release_H.15
p2502
VFederal Reserve Statistical Release H.15
p2503
tp2504
asVH16
p2505
(lp2506
(V/wiki/Curtiss_H-16
p2507
VCurtiss H-16
p2508
tp2509
a(V/wiki/H16_engine
p2510
VH16 engine
p2511
tp2512
a(V/wiki/HMS_Daring_(H16)
p2513
VHMS Daring (H16)
p2514
tp2515
a(V/wiki/HMS_H16
p2516
VHMS H16
p2517
tp2518
a(V/wiki/LSWR_H16_class
p2519
VLSWR H16 class
p2520
tp2521
a(V/wiki/Piasecki_H-16
p2522
VPiasecki H-16
p2523
tp2524
asVH17
p2525
(lp2526
(V/wiki/Heaven_17
p2527
VHeaven 17
p2528
tp2529
a(V/wiki/H-17_Sky_Crane
p2530
VH-17 Sky Crane
p2531
tp2532
a(V/w/index.php?title=British_NVC_community_H17&action=edit&redlink=1
p2533
VBritish NVC community H17 (page does not exist)
p2534
tp2535
a(V/wiki/German_H17-206
p2536
VGerman H17-206
p2537
tp2538
a(V/wiki/Highway_H17_(Ukraine)
p2539
VHighway H17 (Ukraine)
p2540
tp2541
a(V/wiki/HMS_Escapade_(H17)
p2542
VHMS Escapade (H17)
p2543
tp2544
a(V/wiki/HMS_H17
p2545
VHMS H17
p2546
tp2547
a(V/wiki/London_Buses_route_H17
p2548
VLondon Buses route H17
p2549
tp2550
a(V/wiki/ICD-10_Chapter_VII:_Diseases_of_the_eye,_adnexa
p2551
VICD-10 Chapter VII: Diseases of the eye, adnexa
p2552
tp2553
asVH18
p2554
(lp2555
(V/w/index.php?title=British_NVC_community_H18&action=edit&redlink=1
p2556
VBritish NVC community H18 (page does not exist)
p2557
tp2558
a(V/w/index.php?title=H18_(open_Cluster)&action=edit&redlink=1
p2559
VH18 (open Cluster) (page does not exist)
p2560
tp2561
a(V/w/index.php?title=Highway_H18_(Ukraine)&action=edit&redlink=1
p2562
VHighway H18 (Ukraine) (page does not exist)
p2563
tp2564
a(V/wiki/HMS_H18
p2565
VHMS H18
p2566
tp2567
a(V/wiki/London_Buses_routes_H18
p2568
VLondon Buses routes H18
p2569
tp2570
a(V/wiki/Sikorsky_H-18
p2571
VSikorsky H-18
p2572
tp2573
asVH19
p2574
(lp2575
(V/wiki/H19_(gene)
p2576
VH19 (gene)
p2577
tp2578
a(V/w/index.php?title=British_NVC_community_H19&action=edit&redlink=1
p2579
VBritish NVC community H19 (page does not exist)
p2580
tp2581
a(V/wiki/Highway_H19_(Ukraine)
p2582
VHighway H19 (Ukraine)
p2583
tp2584
a(V/wiki/HMS_H19
p2585
VHMS H19
p2586
tp2587
a(V/wiki/HMS_Harvester_(H19)
p2588
VHMS Harvester (H19)
p2589
tp2590
a(V/wiki/London_Buses_route_H19
p2591
VLondon Buses route H19
p2592
tp2593
a(V/wiki/Sikorsky_H-19
p2594
VSikorsky H-19
p2595
tp2596
a(V/wiki/Zenith_Z-89
p2597
VZenith Z-89
p2598
tp2599
asVH20
p2600
(lp2601
(V/wiki/HMS_H20
p2602
VHMS H20
p2603
tp2604
a(V/wiki/McDonnell_XH-20_Little_Henry
p2605
VMcDonnell XH-20 Little Henry
p2606
tp2607
a(V/wiki/Nissan_H20
p2608
VNissan H20
p2609
tp2610
a(V/wiki/Xian_H-20
p2611
VXian H-20
p2612
tp2613
a(V/wiki/Halloween_H20:_20_Years_Later
p2614
VHalloween H20: 20 Years Later
p2615
tp2616
a(V/wiki/Uveitis
p2617
VUveitis
p2618
tp2619
asVH21
p2620
(lp2621
(V/w/index.php?title=British_NVC_community_H21&action=edit&redlink=1
p2622
VBritish NVC community H21 (page does not exist)
p2623
tp2624
a(V/wiki/Highway_H21_(Ukraine)
p2625
VHighway H21 (Ukraine)
p2626
tp2627
a(V/wiki/HMS_H21
p2628
VHMS H21
p2629
tp2630
a(V/wiki/Piasecki_H-21
p2631
VPiasecki H-21
p2632
tp2633
asVH22
p2634
(lp2635
(V/wiki/H22_engine
p2636
VH22 engine
p2637
tp2638
a(V/w/index.php?title=British_NVC_community_H22&action=edit&redlink=1
p2639
VBritish NVC community H22 (page does not exist)
p2640
tp2641
a(V/wiki/Highway_H22_(Ukraine)
p2642
VHighway H22 (Ukraine)
p2643
tp2644
a(V/wiki/HMS_Diamond_(H22)
p2645
VHMS Diamond (H22)
p2646
tp2647
a(V/wiki/HMS_H22
p2648
VHMS H22
p2649
tp2650
asVH23
p2651
(lp2652
(V/wiki/H-23_Raven
p2653
VH-23 Raven
p2654
tp2655
a(V/wiki/HMS_H23
p2656
VHMS H23
p2657
tp2658
a(V/wiki/HMS_Echo_(H23)
p2659
VHMS Echo (H23)
p2660
tp2661
asVH24
p2662
(lp2663
(V/wiki/HMS_H24
p2664
VHMS H24
p2665
tp2666
a(V/wiki/HMS_Hasty_(H24)
p2667
VHMS Hasty (H24)
p2668
tp2669
a(V/wiki/Lior%C3%A9_et_Olivier_LeO_H-24
p2670
VLior et Olivier LeO H-24
p2671
tp2672
asVH25
p2673
(lp2674
(V/wiki/Piasecki_H-25
p2675
VPiasecki H-25
p2676
tp2677
a(V/wiki/HMS_H25
p2678
VHMS H25
p2679
tp2680
asVH26
p2681
(lp2682
(V/wiki/Herreshoff_H-26
p2683
VHerreshoff H-26
p2684
tp2685
a(V/wiki/HMS_H26
p2686
VHMS H26
p2687
tp2688
a(V/wiki/Cataract
p2689
VCataract
p2690
tp2691
asVH27
p2692
(lp2693
(V/wiki/HMS_Electra_(H27)
p2694
VHMS Electra (H27)
p2695
tp2696
a(V/w/index.php?title=HMS_H27&action=edit&redlink=1
p2697
VHMS H27 (page does not exist)
p2698
tp2699
a(V/wiki/ICD-10_Chapter_VII:_Diseases_of_the_eye,_adnexa
p2700
VICD-10 Chapter VII: Diseases of the eye, adnexa
p2701
tp2702
a(V/wiki/NGC_145
p2703
VNGC 145
p2704
tp2705
a(V/wiki/Lior%C3%A9_et_Olivier_LeO_H-27
p2706
VLior et Olivier LeO H-27
p2707
tp2708
asVH28
p2709
(lp2710
(V/wiki/HMS_H28
p2711
VHMS H28
p2712
tp2713
a(V/wiki/London_Buses_route_H28
p2714
VLondon Buses route H28
p2715
tp2716
asVH29
p2717
(lp2718
(V/wiki/Hanriot_H.29
p2719
VHanriot H.29
p2720
tp2721
a(V/wiki/HMS_H29
p2722
VHMS H29
p2723
tp2724
a(V/wiki/HMS_Thanet_(H29)
p2725
VHMS Thanet (H29)
p2726
tp2727
a(V/wiki/McDonnell_H-29
p2728
VMcDonnell H-29
p2729
tp2730
asVH30
p2731
(lp2732
(V/wiki/HMS_Beagle_(H30)
p2733
VHMS Beagle (H30)
p2734
tp2735
a(V/wiki/HMS_H30
p2736
VHMS H30
p2737
tp2738
a(V/wiki/McCulloch_H-30
p2739
VMcCulloch H-30
p2740
tp2741
a(V/wiki/Nissan_H30
p2742
VNissan H30
p2743
tp2744
asVH31
p2745
(lp2746
(V/wiki/Hanriot_H.31
p2747
VHanriot H.31
p2748
tp2749
a(V/wiki/HMCS_Ottawa_(H31)
p2750
VHMCS Ottawa (H31)
p2751
tp2752
a(V/wiki/HMS_H31
p2753
VHMS H31
p2754
tp2755
asVH32
p2756
(lp2757
(V/wiki/HMS_H32
p2758
VHMS H32
p2759
tp2760
a(V/wiki/HMS_Havant_(H32)
p2761
VHMS Havant (H32)
p2762
tp2763
a(V/wiki/HMS_Rapid_(H32)
p2764
VHMS Rapid (H32)
p2765
tp2766
a(V/wiki/London_Buses_route_H32
p2767
VLondon Buses route H32
p2768
tp2769
asVH33
p2770
(lp2771
(V/wiki/HMS_Vanoc_(H33)
p2772
VHMS Vanoc (H33)
p2773
tp2774
a(V/wiki/H-33_(Michigan_county_highway)
p2775
VH-33 (Michigan county highway)
p2776
tp2777
a(V/wiki/HMS_H33
p2778
VHMS H33
p2779
tp2780
a(V/wiki/Hanriot_H.33
p2781
VHanriot H.33
p2782
tp2783
asVH34
p2784
(lp2785
(V/wiki/Hanriot_H.34
p2786
VHanriot H.34
p2787
tp2788
a(V/wiki/HMS_H34
p2789
VHMS H34
p2790
tp2791
a(V/wiki/Sikorsky_H-34
p2792
VSikorsky H-34
p2793
tp2794
asVH35
p2795
(lp2796
(V/wiki/Hanriot_H.35
p2797
VHanriot H.35
p2798
tp2799
a(V/wiki/HMS_Hunter_(H35)
p2800
VHMS Hunter (H35)
p2801
tp2802
a(V/wiki/Hotchkiss_H35
p2803
VHotchkiss H35
p2804
tp2805
asVH36
p2806
(lp2807
(V/wiki/Hoffmann_H36
p2808
VHoffmann H36
p2809
tp2810
a(V/wiki/H36-alpha_7
p2811
VH36-alpha 7
p2812
tp2813
a(V/wiki/Hanriot_H.36
p2814
VHanriot H.36
p2815
tp2816
a(V/wiki/HMS_Antelope_(H36)
p2817
VHMS Antelope (H36)
p2818
tp2819
a(V/w/index.php?title=HMS_H36&action=edit&redlink=1
p2820
VHMS H36 (page does not exist)
p2821
tp2822
asVH37
p2823
(lp2824
(V/wiki/H-37_(Michigan_county_highway)
p2825
VH-37 (Michigan county highway)
p2826
tp2827
a(V/wiki/HMS_Garland_(H37)
p2828
VHMS Garland (H37)
p2829
tp2830
a(V/w/index.php?title=HMS_H37&action=edit&redlink=1
p2831
VHMS H37 (page does not exist)
p2832
tp2833
a(V/wiki/London_Buses_route_H37
p2834
VLondon Buses route H37
p2835
tp2836
asVH38
p2837
(lp2838
(V/wiki/Hanriot_H.38
p2839
VHanriot H.38
p2840
tp2841
a(V/wiki/HMS_Delight_(H38)
p2842
VHMS Delight (H38)
p2843
tp2844
a(V/w/index.php?title=HMS_H38&action=edit&redlink=1
p2845
VHMS H38 (page does not exist)
p2846
tp2847
asVH39
p2848
(lp2849
(V/wiki/Hotchkiss_H39
p2850
VHotchkiss H39
p2851
tp2852
a(V/wiki/H-class_battleship_proposals
p2853
VH-class battleship proposals
p2854
tp2855
asVH40
p2856
(lp2857
(V/wiki/H-40_(Michigan_county_highway)
p2858
VH-40 (Michigan county highway)
p2859
tp2860
a(V/w/index.php?title=H-40_(keelboat)&action=edit&redlink=1
p2861
VH-40 (keelboat) (page does not exist)
p2862
tp2863
a(V/w/index.php?title=HMS_H40&action=edit&redlink=1
p2864
VHMS H40 (page does not exist)
p2865
tp2866
a(V/wiki/Hoffmann_H-40
p2867
VHoffmann H-40
p2868
tp2869
a(V/wiki/HMS_Anthony_(H40)
p2870
VHMS Anthony (H40)
p2871
tp2872
asVH41
p2873
(lp2874
(V/wiki/Hanriot_H.41
p2875
VHanriot H.41
p2876
tp2877
a(V/wiki/HMS_Ardent_(H41)
p2878
VHMS Ardent (H41)
p2879
tp2880
a(V/wiki/HMS_H41
p2881
VHMS H41
p2882
tp2883
a(V/wiki/HMS_Redoubt_(H41)
p2884
VHMS Redoubt (H41)
p2885
tp2886
a(V/wiki/Federal_Reserve_Statistical_Release_H.4.1
p2887
VFederal Reserve Statistical Release H.4.1
p2888
tp2889
as.