(lp0
V/w/index.php?title=Category:All_disambiguation_pages&pagefrom=A+Number+%28disambiguation%29&subcatfrom=A&filefrom=A#mw-pages
p1
aV/w/index.php?title=Category:All_disambiguation_pages&pagefrom=A.+chinense&subcatfrom=A&filefrom=A#mw-pages
p2
aV/w/index.php?title=Category:All_disambiguation_pages&pagefrom=A%2B&subcatfrom=A&filefrom=A#mw-pages
p3
aV/w/index.php?title=Category:All_disambiguation_pages&pagefrom=A555&subcatfrom=A&filefrom=A#mw-pages
p4
aV/w/index.php?title=Category:All_disambiguation_pages&pagefrom=Aare+%28disambiguation%29&subcatfrom=A&filefrom=A#mw-pages
p5
aV/w/index.php?title=Category:All_disambiguation_pages&pagefrom=Abahai&subcatfrom=A&filefrom=A#mw-pages
p6
aV/w/index.php?title=Category:All_disambiguation_pages&pagefrom=ABCDEFG&subcatfrom=A&filefrom=A#mw-pages
p7
aV/w/index.php?title=Category:All_disambiguation_pages&pagefrom=Abgarm+%28disambiguation%29&subcatfrom=A&filefrom=A#mw-pages
p8
aV/w/index.php?title=Category:All_disambiguation_pages&pagefrom=Abrams+Creek&subcatfrom=A&filefrom=A#mw-pages
p9
aV/w/index.php?title=Category:All_disambiguation_pages&pagefrom=ac9%0AAC-9&subcatfrom=A&filefrom=A#mw-pages
p10
aV/w/index.php?title=Category:All_disambiguation_pages&pagefrom=ACDM&subcatfrom=A&filefrom=A#mw-pages
p11
aV/w/index.php?title=Category:All_disambiguation_pages&pagefrom=ACMI&subcatfrom=A&filefrom=A#mw-pages
p12
aV/w/index.php?title=Category:All_disambiguation_pages&pagefrom=Actor%2C+The%0AThe+Actor&subcatfrom=A&filefrom=A#mw-pages
p13
aV/w/index.php?title=Category:All_disambiguation_pages&pagefrom=Adam+Powell&subcatfrom=A&filefrom=A#mw-pages
p14
aV/w/index.php?title=Category:All_disambiguation_pages&pagefrom=Addison&subcatfrom=A&filefrom=A#mw-pages
p15
aV/w/index.php?title=Category:All_disambiguation_pages&pagefrom=Admiral+class&subcatfrom=A&filefrom=A#mw-pages
p16
aV/w/index.php?title=Category:All_disambiguation_pages&pagefrom=Aduna%C8%9Bii&subcatfrom=A&filefrom=A#mw-pages
p17
aV/w/index.php?title=Category:All_disambiguation_pages&pagefrom=Aerolite&subcatfrom=A&filefrom=A#mw-pages
p18
aV/w/index.php?title=Category:All_disambiguation_pages&pagefrom=AFO&subcatfrom=A&filefrom=A#mw-pages
p19
aV/w/index.php?title=Category:All_disambiguation_pages&pagefrom=Against+the+Wall&subcatfrom=A&filefrom=A#mw-pages
p20
aV/w/index.php?title=Category:All_disambiguation_pages&pagefrom=AGI&subcatfrom=A&filefrom=A#mw-pages
p21
aV/w/index.php?title=Category:All_disambiguation_pages&pagefrom=Agrostis+alba&subcatfrom=A&filefrom=A#mw-pages
p22
aV/w/index.php?title=Category:All_disambiguation_pages&pagefrom=Ahmed+Ismail&subcatfrom=A&filefrom=A#mw-pages
p23
aV/w/index.php?title=Category:All_disambiguation_pages&pagefrom=Aille+River&subcatfrom=A&filefrom=A#mw-pages
p24
aV/w/index.php?title=Category:All_disambiguation_pages&pagefrom=Airport+Express+Train+%28disambiguation%29&subcatfrom=A&filefrom=A#mw-pages
p25
aV/w/index.php?title=Category:All_disambiguation_pages&pagefrom=Akademmistechko&subcatfrom=A&filefrom=A#mw-pages
p26
aV/w/index.php?title=Category:All_disambiguation_pages&pagefrom=Aknysta+%28disambiguation%29&subcatfrom=A&filefrom=A#mw-pages
p27
aV/w/index.php?title=Category:All_disambiguation_pages&pagefrom=Al+Thalimain&subcatfrom=A&filefrom=A#mw-pages
p28
aV/w/index.php?title=Category:All_disambiguation_pages&pagefrom=Alamein&subcatfrom=A&filefrom=A#mw-pages
p29
aV/w/index.php?title=Category:All_disambiguation_pages&pagefrom=Alan+Skinner&subcatfrom=A&filefrom=A#mw-pages
p30
aV/w/index.php?title=Category:All_disambiguation_pages&pagefrom=Albert+Brown&subcatfrom=A&filefrom=A#mw-pages
p31
aV/w/index.php?title=Category:All_disambiguation_pages&pagefrom=Alberto+Camargo&subcatfrom=A&filefrom=A#mw-pages
p32
aV/w/index.php?title=Category:All_disambiguation_pages&pagefrom=Aldergrove&subcatfrom=A&filefrom=A#mw-pages
p33
aV/w/index.php?title=Category:All_disambiguation_pages&pagefrom=Aleksandr+Russkikh&subcatfrom=A&filefrom=A#mw-pages
p34
aV/w/index.php?title=Category:All_disambiguation_pages&pagefrom=Alex+Gibson&subcatfrom=A&filefrom=A#mw-pages
p35
aV/w/index.php?title=Category:All_disambiguation_pages&pagefrom=Alexander+Evans&subcatfrom=A&filefrom=A#mw-pages
p36
aV/w/index.php?title=Category:All_disambiguation_pages&pagefrom=Alexander+Rayevsky&subcatfrom=A&filefrom=A#mw-pages
p37
aV/w/index.php?title=Category:All_disambiguation_pages&pagefrom=Alexei+Romanov&subcatfrom=A&filefrom=A#mw-pages
p38
aV/w/index.php?title=Category:All_disambiguation_pages&pagefrom=Alfred+Morgan&subcatfrom=A&filefrom=A#mw-pages
p39
aV/w/index.php?title=Category:All_disambiguation_pages&pagefrom=Ali+Mohamed+%28disambiguation%29&subcatfrom=A&filefrom=A#mw-pages
p40
aV/w/index.php?title=Category:All_disambiguation_pages&pagefrom=Alison+Taylor&subcatfrom=A&filefrom=A#mw-pages
p41
aV/w/index.php?title=Category:All_disambiguation_pages&pagefrom=All+Saints+High+School&subcatfrom=A&filefrom=A#mw-pages
p42
aV/w/index.php?title=Category:All_disambiguation_pages&pagefrom=Allegheny&subcatfrom=A&filefrom=A#mw-pages
p43
aV/w/index.php?title=Category:All_disambiguation_pages&pagefrom=Alligator+Juniper&subcatfrom=A&filefrom=A#mw-pages
p44
aV/w/index.php?title=Category:All_disambiguation_pages&pagefrom=Aloof&subcatfrom=A&filefrom=A#mw-pages
p45
aV/w/index.php?title=Category:All_disambiguation_pages&pagefrom=Altec&subcatfrom=A&filefrom=A#mw-pages
p46
aV/w/index.php?title=Category:All_disambiguation_pages&pagefrom=Alvin+Roth+%28disambiguation%29&subcatfrom=A&filefrom=A#mw-pages
p47
aV/w/index.php?title=Category:All_disambiguation_pages&pagefrom=Amarillo+by+Morning&subcatfrom=A&filefrom=A#mw-pages
p48
aV/w/index.php?title=Category:All_disambiguation_pages&pagefrom=Amelia&subcatfrom=A&filefrom=A#mw-pages
p49
aV/w/index.php?title=Category:All_disambiguation_pages&pagefrom=American+soldier&subcatfrom=A&filefrom=A#mw-pages
p50
aV/w/index.php?title=Category:All_disambiguation_pages&pagefrom=Amne&subcatfrom=A&filefrom=A#mw-pages
p51
aV/w/index.php?title=Category:All_disambiguation_pages&pagefrom=Amy+Hayes&subcatfrom=A&filefrom=A#mw-pages
p52
aV/w/index.php?title=Category:All_disambiguation_pages&pagefrom=Anarchist+Communist+Federation&subcatfrom=A&filefrom=A#mw-pages
p53
aV/w/index.php?title=Category:All_disambiguation_pages&pagefrom=Ande&subcatfrom=A&filefrom=A#mw-pages
p54
aV/w/index.php?title=Category:All_disambiguation_pages&pagefrom=Andr%C3%A9+Malet&subcatfrom=A&filefrom=A#mw-pages
p55
aV/w/index.php?title=Category:All_disambiguation_pages&pagefrom=Andrew+Cohen&subcatfrom=A&filefrom=A#mw-pages
p56
aV/w/index.php?title=Category:All_disambiguation_pages&pagefrom=Andrew+Parkinson&subcatfrom=A&filefrom=A#mw-pages
p57
aV/w/index.php?title=Category:All_disambiguation_pages&pagefrom=Andropovsky&subcatfrom=A&filefrom=A#mw-pages
p58
aV/w/index.php?title=Category:All_disambiguation_pages&pagefrom=Angela+Hayes&subcatfrom=A&filefrom=A#mw-pages
p59
aV/w/index.php?title=Category:All_disambiguation_pages&pagefrom=Aniakchak&subcatfrom=A&filefrom=A#mw-pages
p60
aV/w/index.php?title=Category:All_disambiguation_pages&pagefrom=Ann+Henderson+%28disambiguation%29&subcatfrom=A&filefrom=A#mw-pages
p61
aV/w/index.php?title=Category:All_disambiguation_pages&pagefrom=Anne+Fitzroy&subcatfrom=A&filefrom=A#mw-pages
p62
aV/w/index.php?title=Category:All_disambiguation_pages&pagefrom=Anonymous+Venetian%2C+The%0AThe+Anonymous+Venetian&subcatfrom=A&filefrom=A#mw-pages
p63
aV/w/index.php?title=Category:All_disambiguation_pages&pagefrom=Anthem%2C+The%0AThe+Anthem&subcatfrom=A&filefrom=A#mw-pages
p64
aV/w/index.php?title=Category:All_disambiguation_pages&pagefrom=Anthony+Stewart&subcatfrom=A&filefrom=A#mw-pages
p65
aV/w/index.php?title=Category:All_disambiguation_pages&pagefrom=Antoine+Zahra&subcatfrom=A&filefrom=A#mw-pages
p66
aV/w/index.php?title=Category:All_disambiguation_pages&pagefrom=Anuak&subcatfrom=A&filefrom=A#mw-pages
p67
aV/w/index.php?title=Category:All_disambiguation_pages&pagefrom=Apaga&subcatfrom=A&filefrom=A#mw-pages
p68
aV/w/index.php?title=Category:All_disambiguation_pages&pagefrom=Apostolic+Exarchate+of+Canada&subcatfrom=A&filefrom=A#mw-pages
p69
aV/w/index.php?title=Category:All_disambiguation_pages&pagefrom=APTI&subcatfrom=A&filefrom=A#mw-pages
p70
aV/w/index.php?title=Category:All_disambiguation_pages&pagefrom=Arabistan&subcatfrom=A&filefrom=A#mw-pages
p71
aV/w/index.php?title=Category:All_disambiguation_pages&pagefrom=Arbor+Lodge&subcatfrom=A&filefrom=A#mw-pages
p72
aV/w/index.php?title=Category:All_disambiguation_pages&pagefrom=Archibald+Burns&subcatfrom=A&filefrom=A#mw-pages
p73
aV/w/index.php?title=Category:All_disambiguation_pages&pagefrom=Are+You+Listening%3F&subcatfrom=A&filefrom=A#mw-pages
p74
aV/w/index.php?title=Category:All_disambiguation_pages&pagefrom=ARHS&subcatfrom=A&filefrom=A#mw-pages
p75
aV/w/index.php?title=Category:All_disambiguation_pages&pagefrom=Arla&subcatfrom=A&filefrom=A#mw-pages
p76
aV/w/index.php?title=Category:All_disambiguation_pages&pagefrom=Army+Group+Mackensen&subcatfrom=A&filefrom=A#mw-pages
p77
aV/w/index.php?title=Category:All_disambiguation_pages&pagefrom=ARRG&subcatfrom=A&filefrom=A#mw-pages
p78
aV/w/index.php?title=Category:All_disambiguation_pages&pagefrom=Arteriola+glomerularis&subcatfrom=A&filefrom=A#mw-pages
p79
aV/w/index.php?title=Category:All_disambiguation_pages&pagefrom=Arthur+Jarrett&subcatfrom=A&filefrom=A#mw-pages
p80
aV/w/index.php?title=Category:All_disambiguation_pages&pagefrom=Arthurs&subcatfrom=A&filefrom=A#mw-pages
p81
aV/w/index.php?title=Category:All_disambiguation_pages&pagefrom=As%0A%C3%85s&subcatfrom=A&filefrom=A#mw-pages
p82
aV/w/index.php?title=Category:All_disambiguation_pages&pagefrom=Asdal&subcatfrom=A&filefrom=A#mw-pages
p83
aV/w/index.php?title=Category:All_disambiguation_pages&pagefrom=Ashmore+%28disambiguation%29&subcatfrom=A&filefrom=A#mw-pages
p84
aV/w/index.php?title=Category:All_disambiguation_pages&pagefrom=Aslan+%28disambiguation%29&subcatfrom=A&filefrom=A#mw-pages
p85
aV/w/index.php?title=Category:All_disambiguation_pages&pagefrom=Associated&subcatfrom=A&filefrom=A#mw-pages
p86
aV/w/index.php?title=Category:All_disambiguation_pages&pagefrom=At+the+Bardo&subcatfrom=A&filefrom=A#mw-pages
p87
aV/w/index.php?title=Category:All_disambiguation_pages&pagefrom=Athletic+Park&subcatfrom=A&filefrom=A#mw-pages
p88
aV/w/index.php?title=Category:All_disambiguation_pages&pagefrom=Atran%0A%C3%84tran&subcatfrom=A&filefrom=A#mw-pages
p89
aV/w/index.php?title=Category:All_disambiguation_pages&pagefrom=Auburn+micropolitan+area&subcatfrom=A&filefrom=A#mw-pages
p90
aV/w/index.php?title=Category:All_disambiguation_pages&pagefrom=Aulad&subcatfrom=A&filefrom=A#mw-pages
p91
aV/w/index.php?title=Category:All_disambiguation_pages&pagefrom=Australasian&subcatfrom=A&filefrom=A#mw-pages
p92
aV/w/index.php?title=Category:All_disambiguation_pages&pagefrom=Auxilius&subcatfrom=A&filefrom=A#mw-pages
p93
aV/w/index.php?title=Category:All_disambiguation_pages&pagefrom=Avion&subcatfrom=A&filefrom=A#mw-pages
p94
aV/w/index.php?title=Category:All_disambiguation_pages&pagefrom=Axenfeld&subcatfrom=A&filefrom=A#mw-pages
p95
aV/w/index.php?title=Category:All_disambiguation_pages&pagefrom=Az+%C3%B6rd%C3%B6g&subcatfrom=A&filefrom=A#mw-pages
p96
aV/w/index.php?title=Category:All_disambiguation_pages&pagefrom=B.+arvensis&subcatfrom=A&filefrom=A#mw-pages
p97
aV/w/index.php?title=Category:All_disambiguation_pages&pagefrom=B85&subcatfrom=A&filefrom=A#mw-pages
p98
aV/w/index.php?title=Category:All_disambiguation_pages&pagefrom=Babur%2C+Iran&subcatfrom=A&filefrom=A#mw-pages
p99
aV/w/index.php?title=Category:All_disambiguation_pages&pagefrom=Backdrop&subcatfrom=A&filefrom=A#mw-pages
p100
aV/w/index.php?title=Category:All_disambiguation_pages&pagefrom=Badger+%28disambiguation%29&subcatfrom=A&filefrom=A#mw-pages
p101
aV/w/index.php?title=Category:All_disambiguation_pages&pagefrom=Baghlujeh&subcatfrom=A&filefrom=A#mw-pages
p102
aV/w/index.php?title=Category:All_disambiguation_pages&pagefrom=Baigou&subcatfrom=A&filefrom=A#mw-pages
p103
aV/w/index.php?title=Category:All_disambiguation_pages&pagefrom=Baker+Lake&subcatfrom=A&filefrom=A#mw-pages
p104
aV/w/index.php?title=Category:All_disambiguation_pages&pagefrom=Balci%0ABalc%C4%B1&subcatfrom=A&filefrom=A#mw-pages
p105
aV/w/index.php?title=Category:All_disambiguation_pages&pagefrom=Ballaghmore&subcatfrom=A&filefrom=A#mw-pages
p106
aV/w/index.php?title=Category:All_disambiguation_pages&pagefrom=Baltimore+riots&subcatfrom=A&filefrom=A#mw-pages
p107
aV/w/index.php?title=Category:All_disambiguation_pages&pagefrom=Banded+darter&subcatfrom=A&filefrom=A#mw-pages
p108
aV/w/index.php?title=Category:All_disambiguation_pages&pagefrom=Bank+Street+Historic+District&subcatfrom=A&filefrom=A#mw-pages
p109
aV/w/index.php?title=Category:All_disambiguation_pages&pagefrom=Bar+Island+%28disambiguation%29&subcatfrom=A&filefrom=A#mw-pages
p110
aV/w/index.php?title=Category:All_disambiguation_pages&pagefrom=Barbat&subcatfrom=A&filefrom=A#mw-pages
p111
aV/w/index.php?title=Category:All_disambiguation_pages&pagefrom=Barhoue&subcatfrom=A&filefrom=A#mw-pages
p112
aV/w/index.php?title=Category:All_disambiguation_pages&pagefrom=Barnsley+%28disambiguation%29&subcatfrom=A&filefrom=A#mw-pages
p113
aV/w/index.php?title=Category:All_disambiguation_pages&pagefrom=Barrio+Norte&subcatfrom=A&filefrom=A#mw-pages
p114
aV/w/index.php?title=Category:All_disambiguation_pages&pagefrom=Barton+Hills&subcatfrom=A&filefrom=A#mw-pages
p115
aV/w/index.php?title=Category:All_disambiguation_pages&pagefrom=Basilea+%28disambiguation%29&subcatfrom=A&filefrom=A#mw-pages
p116
aV/w/index.php?title=Category:All_disambiguation_pages&pagefrom=Batar+%28disambiguation%29&subcatfrom=A&filefrom=A#mw-pages
p117
aV/w/index.php?title=Category:All_disambiguation_pages&pagefrom=Battle+Hill&subcatfrom=A&filefrom=A#mw-pages
p118
aV/w/index.php?title=Category:All_disambiguation_pages&pagefrom=Battle+of+Gettysburg+%28disambiguation%29&subcatfrom=A&filefrom=A#mw-pages
p119
aV/w/index.php?title=Category:All_disambiguation_pages&pagefrom=Battle+of+Port-au-Prince&subcatfrom=A&filefrom=A#mw-pages
p120
aV/w/index.php?title=Category:All_disambiguation_pages&pagefrom=Battle+of+Yeonpyeong&subcatfrom=A&filefrom=A#mw-pages
p121
aV/w/index.php?title=Category:All_disambiguation_pages&pagefrom=Bayadere&subcatfrom=A&filefrom=A#mw-pages
p122
aV/w/index.php?title=Category:All_disambiguation_pages&pagefrom=BBDD&subcatfrom=A&filefrom=A#mw-pages
p123
aV/w/index.php?title=Category:All_disambiguation_pages&pagefrom=Beachlands&subcatfrom=A&filefrom=A#mw-pages
p124
aV/w/index.php?title=Category:All_disambiguation_pages&pagefrom=Beatrice+of+Sicily&subcatfrom=A&filefrom=A#mw-pages
p125
aV/w/index.php?title=Category:All_disambiguation_pages&pagefrom=Beaverkill&subcatfrom=A&filefrom=A#mw-pages
p126
aV/w/index.php?title=Category:All_disambiguation_pages&pagefrom=Beech+Grove%2C+Tennessee&subcatfrom=A&filefrom=A#mw-pages
p127
aV/w/index.php?title=Category:All_disambiguation_pages&pagefrom=Behlol+Pur&subcatfrom=A&filefrom=A#mw-pages
p128
aV/w/index.php?title=Category:All_disambiguation_pages&pagefrom=Belden&subcatfrom=A&filefrom=A#mw-pages
p129
aV/w/index.php?title=Category:All_disambiguation_pages&pagefrom=Bellagio+Towers&subcatfrom=A&filefrom=A#mw-pages
p130
aV/w/index.php?title=Category:All_disambiguation_pages&pagefrom=Belouizdad&subcatfrom=A&filefrom=A#mw-pages
p131
aV/w/index.php?title=Category:All_disambiguation_pages&pagefrom=Ben+Parker&subcatfrom=A&filefrom=A#mw-pages
p132
aV/w/index.php?title=Category:All_disambiguation_pages&pagefrom=Benita&subcatfrom=A&filefrom=A#mw-pages
p133
aV/w/index.php?title=Category:All_disambiguation_pages&pagefrom=Bennett%2C+John%0AJohn+Bennett&subcatfrom=A&filefrom=A#mw-pages
p134
aV/w/index.php?title=Category:All_disambiguation_pages&pagefrom=Berenberg+%28disambiguation%29&subcatfrom=A&filefrom=A#mw-pages
p135
aV/w/index.php?title=Category:All_disambiguation_pages&pagefrom=Bermondsey+by-election&subcatfrom=A&filefrom=A#mw-pages
p136
aV/w/index.php?title=Category:All_disambiguation_pages&pagefrom=Berrytown&subcatfrom=A&filefrom=A#mw-pages
p137
aV/w/index.php?title=Category:All_disambiguation_pages&pagefrom=Bessie+%28disambiguation%29&subcatfrom=A&filefrom=A#mw-pages
p138
aV/w/index.php?title=Category:All_disambiguation_pages&pagefrom=Bethel%2C+Oregon&subcatfrom=A&filefrom=A#mw-pages
p139
aV/w/index.php?title=Category:All_disambiguation_pages&pagefrom=Beyanlu&subcatfrom=A&filefrom=A#mw-pages
p140
aV/w/index.php?title=Category:All_disambiguation_pages&pagefrom=Bhaktavatsala+Perumal+Temple&subcatfrom=A&filefrom=A#mw-pages
p141
aV/w/index.php?title=Category:All_disambiguation_pages&pagefrom=Bibb+County&subcatfrom=A&filefrom=A#mw-pages
p142
aV/w/index.php?title=Category:All_disambiguation_pages&pagefrom=Biersack&subcatfrom=A&filefrom=A#mw-pages
p143
aV/w/index.php?title=Category:All_disambiguation_pages&pagefrom=Big+Heat&subcatfrom=A&filefrom=A#mw-pages
p144
aV/w/index.php?title=Category:All_disambiguation_pages&pagefrom=Bignone&subcatfrom=A&filefrom=A#mw-pages
p145
aV/w/index.php?title=Category:All_disambiguation_pages&pagefrom=Bill+Higginson&subcatfrom=A&filefrom=A#mw-pages
p146
aV/w/index.php?title=Category:All_disambiguation_pages&pagefrom=Billy+Ray+Smith&subcatfrom=A&filefrom=A#mw-pages
p147
aV/w/index.php?title=Category:All_disambiguation_pages&pagefrom=Biomodeling&subcatfrom=A&filefrom=A#mw-pages
p148
aV/w/index.php?title=Category:All_disambiguation_pages&pagefrom=Birnam&subcatfrom=A&filefrom=A#mw-pages
p149
aV/w/index.php?title=Category:All_disambiguation_pages&pagefrom=Bishop%27s+Palace&subcatfrom=A&filefrom=A#mw-pages
p150
aV/w/index.php?title=Category:All_disambiguation_pages&pagefrom=Bjerknes&subcatfrom=A&filefrom=A#mw-pages
p151
aV/w/index.php?title=Category:All_disambiguation_pages&pagefrom=Black+earth&subcatfrom=A&filefrom=A#mw-pages
p152
aV/w/index.php?title=Category:All_disambiguation_pages&pagefrom=Black+Snow&subcatfrom=A&filefrom=A#mw-pages
p153
aV/w/index.php?title=Category:All_disambiguation_pages&pagefrom=Blackwell+High+School&subcatfrom=A&filefrom=A#mw-pages
p154
aV/w/index.php?title=Category:All_disambiguation_pages&pagefrom=Blaster+Master+%28disambiguation%29&subcatfrom=A&filefrom=A#mw-pages
p155
aV/w/index.php?title=Category:All_disambiguation_pages&pagefrom=Blink+of+an+Eye&subcatfrom=A&filefrom=A#mw-pages
p156
aV/w/index.php?title=Category:All_disambiguation_pages&pagefrom=Bloodstock&subcatfrom=A&filefrom=A#mw-pages
p157
aV/w/index.php?title=Category:All_disambiguation_pages&pagefrom=Blue+County&subcatfrom=A&filefrom=A#mw-pages
p158
aV/w/index.php?title=Category:All_disambiguation_pages&pagefrom=Blue+veil&subcatfrom=A&filefrom=A#mw-pages
p159
aV/w/index.php?title=Category:All_disambiguation_pages&pagefrom=BNOC&subcatfrom=A&filefrom=A#mw-pages
p160
aV/w/index.php?title=Category:All_disambiguation_pages&pagefrom=Bob+Page&subcatfrom=A&filefrom=A#mw-pages
p161
aV/w/index.php?title=Category:All_disambiguation_pages&pagefrom=Bochenski&subcatfrom=A&filefrom=A#mw-pages
p162
aV/w/index.php?title=Category:All_disambiguation_pages&pagefrom=Bogue+Homo&subcatfrom=A&filefrom=A#mw-pages
p163
aV/w/index.php?title=Category:All_disambiguation_pages&pagefrom=Bolen&subcatfrom=A&filefrom=A#mw-pages
p164
aV/w/index.php?title=Category:All_disambiguation_pages&pagefrom=Bompas&subcatfrom=A&filefrom=A#mw-pages
p165
aV/w/index.php?title=Category:All_disambiguation_pages&pagefrom=Bonneville&subcatfrom=A&filefrom=A#mw-pages
p166
aV/w/index.php?title=Category:All_disambiguation_pages&pagefrom=Boor&subcatfrom=A&filefrom=A#mw-pages
p167
aV/w/index.php?title=Category:All_disambiguation_pages&pagefrom=Boris+Pavlov&subcatfrom=A&filefrom=A#mw-pages
p168
aV/w/index.php?title=Category:All_disambiguation_pages&pagefrom=Borup&subcatfrom=A&filefrom=A#mw-pages
p169
aV/w/index.php?title=Category:All_disambiguation_pages&pagefrom=Bothel&subcatfrom=A&filefrom=A#mw-pages
p170
aV/w/index.php?title=Category:All_disambiguation_pages&pagefrom=Bourne+Identity%2C+The%0AThe+Bourne+Identity&subcatfrom=A&filefrom=A#mw-pages
p171
aV/w/index.php?title=Category:All_disambiguation_pages&pagefrom=Boy+Blue&subcatfrom=A&filefrom=A#mw-pages
p172
aV/w/index.php?title=Category:All_disambiguation_pages&pagefrom=BPS&subcatfrom=A&filefrom=A#mw-pages
p173
aV/w/index.php?title=Category:All_disambiguation_pages&pagefrom=Bradshaw%2C+West+Virginia%2FOld+history&subcatfrom=A&filefrom=A#mw-pages
p174
aV/w/index.php?title=Category:All_disambiguation_pages&pagefrom=Brandon+Johnson&subcatfrom=A&filefrom=A#mw-pages
p175
aV/w/index.php?title=Category:All_disambiguation_pages&pagefrom=Brayton&subcatfrom=A&filefrom=A#mw-pages
p176
aV/w/index.php?title=Category:All_disambiguation_pages&pagefrom=Breede&subcatfrom=A&filefrom=A#mw-pages
p177
aV/w/index.php?title=Category:All_disambiguation_pages&pagefrom=Brett%2C+George%0AGeorge+Brett+%28disambiguation%29&subcatfrom=A&filefrom=A#mw-pages
p178
aV/w/index.php?title=Category:All_disambiguation_pages&pagefrom=Brian+Henderson&subcatfrom=A&filefrom=A#mw-pages
p179
aV/w/index.php?title=Category:All_disambiguation_pages&pagefrom=Bride+and+Gloom&subcatfrom=A&filefrom=A#mw-pages
p180
aV/w/index.php?title=Category:All_disambiguation_pages&pagefrom=Brightwen&subcatfrom=A&filefrom=A#mw-pages
p181
aV/w/index.php?title=Category:All_disambiguation_pages&pagefrom=British+Rail+Mark+5&subcatfrom=A&filefrom=A#mw-pages
p182
aV/w/index.php?title=Category:All_disambiguation_pages&pagefrom=Broeck&subcatfrom=A&filefrom=A#mw-pages
p183
aV/w/index.php?title=Category:All_disambiguation_pages&pagefrom=Brooklyn+Dodgers+%28disambiguation%29&subcatfrom=A&filefrom=A#mw-pages
p184
aV/w/index.php?title=Category:All_disambiguation_pages&pagefrom=Brown%2C+Dana%0ADana+Brown+%28disambiguation%29&subcatfrom=A&filefrom=A#mw-pages
p185
aV/w/index.php?title=Category:All_disambiguation_pages&pagefrom=Bruce+Nelson&subcatfrom=A&filefrom=A#mw-pages
p186
aV/w/index.php?title=Category:All_disambiguation_pages&pagefrom=Brusyliv&subcatfrom=A&filefrom=A#mw-pages
p187
aV/w/index.php?title=Category:All_disambiguation_pages&pagefrom=BSFC&subcatfrom=A&filefrom=A#mw-pages
p188
aV/w/index.php?title=Category:All_disambiguation_pages&pagefrom=Buckeye%2C+California&subcatfrom=A&filefrom=A#mw-pages
p189
aV/w/index.php?title=Category:All_disambiguation_pages&pagefrom=Buettneria&subcatfrom=A&filefrom=A#mw-pages
p190
aV/w/index.php?title=Category:All_disambiguation_pages&pagefrom=Bukowa&subcatfrom=A&filefrom=A#mw-pages
p191
aV/w/index.php?title=Category:All_disambiguation_pages&pagefrom=Bunagana&subcatfrom=A&filefrom=A#mw-pages
p192
aV/w/index.php?title=Category:All_disambiguation_pages&pagefrom=Burgkirchen&subcatfrom=A&filefrom=A#mw-pages
p193
aV/w/index.php?title=Category:All_disambiguation_pages&pagefrom=Burntside&subcatfrom=A&filefrom=A#mw-pages
p194
aV/w/index.php?title=Category:All_disambiguation_pages&pagefrom=Business+Casual&subcatfrom=A&filefrom=A#mw-pages
p195
aV/w/index.php?title=Category:All_disambiguation_pages&pagefrom=Buttonhole+%28disambiguation%29&subcatfrom=A&filefrom=A#mw-pages
p196
aV/w/index.php?title=Category:All_disambiguation_pages&pagefrom=Bye+Bye+Blues&subcatfrom=A&filefrom=A#mw-pages
p197
aV/w/index.php?title=Category:All_disambiguation_pages&pagefrom=C.+berlandieri&subcatfrom=A&filefrom=A#mw-pages
p198
aV/w/index.php?title=Category:All_disambiguation_pages&pagefrom=C.+officinalis&subcatfrom=A&filefrom=A#mw-pages
p199
aV/w/index.php?title=Category:All_disambiguation_pages&pagefrom=C70&subcatfrom=A&filefrom=A#mw-pages
p200
aV/w/index.php?title=Category:All_disambiguation_pages&pagefrom=Cabrerizo&subcatfrom=A&filefrom=A#mw-pages
p201
aV/w/index.php?title=Category:All_disambiguation_pages&pagefrom=CAGI&subcatfrom=A&filefrom=A#mw-pages
p202
aV/w/index.php?title=Category:All_disambiguation_pages&pagefrom=Calderstones+%28disambiguation%29&subcatfrom=A&filefrom=A#mw-pages
p203
aV/w/index.php?title=Category:All_disambiguation_pages&pagefrom=California%27s+34th+district&subcatfrom=A&filefrom=A#mw-pages
p204
aV/w/index.php?title=Category:All_disambiguation_pages&pagefrom=Calul+River&subcatfrom=A&filefrom=A#mw-pages
p205
aV/w/index.php?title=Category:All_disambiguation_pages&pagefrom=Cameron+Creek+%28disambiguation%29&subcatfrom=A&filefrom=A#mw-pages
p206
aV/w/index.php?title=Category:All_disambiguation_pages&pagefrom=Campbell+River&subcatfrom=A&filefrom=A#mw-pages
p207
aV/w/index.php?title=Category:All_disambiguation_pages&pagefrom=Canadian+Falls&subcatfrom=A&filefrom=A#mw-pages
p208
aV/w/index.php?title=Category:All_disambiguation_pages&pagefrom=Canker-worm&subcatfrom=A&filefrom=A#mw-pages
p209
aV/w/index.php?title=Category:All_disambiguation_pages&pagefrom=Cao+Cao+%28disambiguation%29&subcatfrom=A&filefrom=A#mw-pages
p210
aV/w/index.php?title=Category:All_disambiguation_pages&pagefrom=Capixaba&subcatfrom=A&filefrom=A#mw-pages
p211
aV/w/index.php?title=Category:All_disambiguation_pages&pagefrom=Carabayllo&subcatfrom=A&filefrom=A#mw-pages
p212
aV/w/index.php?title=Category:All_disambiguation_pages&pagefrom=Cardona&subcatfrom=A&filefrom=A#mw-pages
p213
aV/w/index.php?title=Category:All_disambiguation_pages&pagefrom=Carl+Rogers+%28disambiguation%29&subcatfrom=A&filefrom=A#mw-pages
p214
aV/w/index.php?title=Category:All_disambiguation_pages&pagefrom=Carlos+P%C3%A9rez&subcatfrom=A&filefrom=A#mw-pages
p215
aV/w/index.php?title=Category:All_disambiguation_pages&pagefrom=Carol+Smith&subcatfrom=A&filefrom=A#mw-pages
p216
aV/w/index.php?title=Category:All_disambiguation_pages&pagefrom=Carrio+%28disambiguation%29&subcatfrom=A&filefrom=A#mw-pages
p217
aV/w/index.php?title=Category:All_disambiguation_pages&pagefrom=Casal+%28Disambiguation%29%0ACasal+%28disambiguation%29&subcatfrom=A&filefrom=A#mw-pages
p218
aV/w/index.php?title=Category:All_disambiguation_pages&pagefrom=Cassidy%2C+James%0AJames+Cassidy&subcatfrom=A&filefrom=A#mw-pages
p219
aV/w/index.php?title=Category:All_disambiguation_pages&pagefrom=Castr%C3%A9n+Cabinet&subcatfrom=A&filefrom=A#mw-pages
p220
aV/w/index.php?title=Category:All_disambiguation_pages&pagefrom=Cathcart+%28disambiguation%29&subcatfrom=A&filefrom=A#mw-pages
p221
aV/w/index.php?title=Category:All_disambiguation_pages&pagefrom=Cathy+Long&subcatfrom=A&filefrom=A#mw-pages
p222
aV/w/index.php?title=Category:All_disambiguation_pages&pagefrom=Cavity&subcatfrom=A&filefrom=A#mw-pages
p223
aV/w/index.php?title=Category:All_disambiguation_pages&pagefrom=CBS+42&subcatfrom=A&filefrom=A#mw-pages
p224
aV/w/index.php?title=Category:All_disambiguation_pages&pagefrom=CCZ&subcatfrom=A&filefrom=A#mw-pages
p225
aV/w/index.php?title=Category:All_disambiguation_pages&pagefrom=Cedar+Park&subcatfrom=A&filefrom=A#mw-pages
p226
aV/w/index.php?title=Category:All_disambiguation_pages&pagefrom=CELSA&subcatfrom=A&filefrom=A#mw-pages
p227
aV/w/index.php?title=Category:All_disambiguation_pages&pagefrom=Central+Armagh&subcatfrom=A&filefrom=A#mw-pages
p228
aV/w/index.php?title=Category:All_disambiguation_pages&pagefrom=Centre+Township&subcatfrom=A&filefrom=A#mw-pages
p229
aV/w/index.php?title=Category:All_disambiguation_pages&pagefrom=Certified+%28disambiguation%29&subcatfrom=A&filefrom=A#mw-pages
p230
aV/w/index.php?title=Category:All_disambiguation_pages&pagefrom=CFRN&subcatfrom=A&filefrom=A#mw-pages
p231
aV/w/index.php?title=Category:All_disambiguation_pages&pagefrom=Chah+Dozdan&subcatfrom=A&filefrom=A#mw-pages
p232
aV/w/index.php?title=Category:All_disambiguation_pages&pagefrom=Chakia&subcatfrom=A&filefrom=A#mw-pages
p233
aV/w/index.php?title=Category:All_disambiguation_pages&pagefrom=Chambers+House&subcatfrom=A&filefrom=A#mw-pages
p234
aV/w/index.php?title=Category:All_disambiguation_pages&pagefrom=Chandrapur+%28disambiguation%29&subcatfrom=A&filefrom=A#mw-pages
p235
aV/w/index.php?title=Category:All_disambiguation_pages&pagefrom=Channing&subcatfrom=A&filefrom=A#mw-pages
p236
aV/w/index.php?title=Category:All_disambiguation_pages&pagefrom=Chardon&subcatfrom=A&filefrom=A#mw-pages
p237
aV/w/index.php?title=Category:All_disambiguation_pages&pagefrom=Charles+Byrne&subcatfrom=A&filefrom=A#mw-pages
p238
aV/w/index.php?title=Category:All_disambiguation_pages&pagefrom=Charles+Erdman&subcatfrom=A&filefrom=A#mw-pages
p239
aV/w/index.php?title=Category:All_disambiguation_pages&pagefrom=Charles+Houghton&subcatfrom=A&filefrom=A#mw-pages
p240
aV/w/index.php?title=Category:All_disambiguation_pages&pagefrom=Charles+Minot&subcatfrom=A&filefrom=A#mw-pages
p241
aV/w/index.php?title=Category:All_disambiguation_pages&pagefrom=Charles+Shields&subcatfrom=A&filefrom=A#mw-pages
p242
aV/w/index.php?title=Category:All_disambiguation_pages&pagefrom=Charles%2C+George%0AGeorge+Charles+%28disambiguation%29&subcatfrom=A&filefrom=A#mw-pages
p243
aV/w/index.php?title=Category:All_disambiguation_pages&pagefrom=Charnwood&subcatfrom=A&filefrom=A#mw-pages
p244
aV/w/index.php?title=Category:All_disambiguation_pages&pagefrom=Chatty&subcatfrom=A&filefrom=A#mw-pages
p245
aV/w/index.php?title=Category:All_disambiguation_pages&pagefrom=Cheeseboard&subcatfrom=A&filefrom=A#mw-pages
p246
aV/w/index.php?title=Category:All_disambiguation_pages&pagefrom=Chenar+Bon&subcatfrom=A&filefrom=A#mw-pages
p247
aV/w/index.php?title=Category:All_disambiguation_pages&pagefrom=Cherry+Street+Bridge&subcatfrom=A&filefrom=A#mw-pages
p248
aV/w/index.php?title=Category:All_disambiguation_pages&pagefrom=Chetuk&subcatfrom=A&filefrom=A#mw-pages
p249
aV/w/index.php?title=Category:All_disambiguation_pages&pagefrom=Chicheley+%28disambiguation%29&subcatfrom=A&filefrom=A#mw-pages
p250
aV/w/index.php?title=Category:All_disambiguation_pages&pagefrom=Childerich&subcatfrom=A&filefrom=A#mw-pages
p251
aV/w/index.php?title=Category:All_disambiguation_pages&pagefrom=Chincheros+%28disambiguation%29&subcatfrom=A&filefrom=A#mw-pages
p252
aV/w/index.php?title=Category:All_disambiguation_pages&pagefrom=Chirakkal&subcatfrom=A&filefrom=A#mw-pages
p253
aV/w/index.php?title=Category:All_disambiguation_pages&pagefrom=Chociwel+%28disambiguation%29&subcatfrom=A&filefrom=A#mw-pages
p254
aV/w/index.php?title=Category:All_disambiguation_pages&pagefrom=Choral+symphony+%28disambiguation%29&subcatfrom=A&filefrom=A#mw-pages
p255
aV/w/index.php?title=Category:All_disambiguation_pages&pagefrom=Chris+Graham&subcatfrom=A&filefrom=A#mw-pages
p256
aV/w/index.php?title=Category:All_disambiguation_pages&pagefrom=Christ+Church+Lutheran&subcatfrom=A&filefrom=A#mw-pages
p257
aV/w/index.php?title=Category:All_disambiguation_pages&pagefrom=Christine+Harris&subcatfrom=A&filefrom=A#mw-pages
p258
aV/w/index.php?title=Category:All_disambiguation_pages&pagefrom=Christopher+Nugent+%28disambiguation%29&subcatfrom=A&filefrom=A#mw-pages
p259
aV/w/index.php?title=Category:All_disambiguation_pages&pagefrom=Chuave&subcatfrom=A&filefrom=A#mw-pages
p260
aV/w/index.php?title=Category:All_disambiguation_pages&pagefrom=Church+of+Jesus+Christ+Restored&subcatfrom=A&filefrom=A#mw-pages
p261
aV/w/index.php?title=Category:All_disambiguation_pages&pagefrom=CIA+%28disambiguation%29&subcatfrom=A&filefrom=A#mw-pages
p262
aV/w/index.php?title=Category:All_disambiguation_pages&pagefrom=Cimon+%28disambiguation%29&subcatfrom=A&filefrom=A#mw-pages
p263
aV/w/index.php?title=Category:All_disambiguation_pages&pagefrom=CIRS&subcatfrom=A&filefrom=A#mw-pages
p264
aV/w/index.php?title=Category:All_disambiguation_pages&pagefrom=City+of+Masks&subcatfrom=A&filefrom=A#mw-pages
p265
aV/w/index.php?title=Category:All_disambiguation_pages&pagefrom=CJSS&subcatfrom=A&filefrom=A#mw-pages
p266
aV/w/index.php?title=Category:All_disambiguation_pages&pagefrom=Claremont&subcatfrom=A&filefrom=A#mw-pages
p267
aV/w/index.php?title=Category:All_disambiguation_pages&pagefrom=Clarks+Landing&subcatfrom=A&filefrom=A#mw-pages
p268
aV/w/index.php?title=Category:All_disambiguation_pages&pagefrom=Class+II&subcatfrom=A&filefrom=A#mw-pages
p269
aV/w/index.php?title=Category:All_disambiguation_pages&pagefrom=CLC-1&subcatfrom=A&filefrom=A#mw-pages
p270
aV/w/index.php?title=Category:All_disambiguation_pages&pagefrom=Cleveland+motorcycle&subcatfrom=A&filefrom=A#mw-pages
p271
aV/w/index.php?title=Category:All_disambiguation_pages&pagefrom=Clinton%2C+Michigan&subcatfrom=A&filefrom=A#mw-pages
p272
aV/w/index.php?title=Category:All_disambiguation_pages&pagefrom=Clover+Township&subcatfrom=A&filefrom=A#mw-pages
p273
aV/w/index.php?title=Category:All_disambiguation_pages&pagefrom=CMV&subcatfrom=A&filefrom=A#mw-pages
p274
aV/w/index.php?title=Category:All_disambiguation_pages&pagefrom=Coban&subcatfrom=A&filefrom=A#mw-pages
p275
aV/w/index.php?title=Category:All_disambiguation_pages&pagefrom=Codex+Sangallensis&subcatfrom=A&filefrom=A#mw-pages
p276
aV/w/index.php?title=Category:All_disambiguation_pages&pagefrom=Colander+%28disambiguation%29&subcatfrom=A&filefrom=A#mw-pages
p277
aV/w/index.php?title=Category:All_disambiguation_pages&pagefrom=Coligny&subcatfrom=A&filefrom=A#mw-pages
p278
aV/w/index.php?title=Category:All_disambiguation_pages&pagefrom=College+of+Medicine&subcatfrom=A&filefrom=A#mw-pages
p279
aV/w/index.php?title=Category:All_disambiguation_pages&pagefrom=Colonial+Bank&subcatfrom=A&filefrom=A#mw-pages
p280
aV/w/index.php?title=Category:All_disambiguation_pages&pagefrom=Columbus+Drive&subcatfrom=A&filefrom=A#mw-pages
p281
aV/w/index.php?title=Category:All_disambiguation_pages&pagefrom=Comet+Tempel&subcatfrom=A&filefrom=A#mw-pages
p282
aV/w/index.php?title=Category:All_disambiguation_pages&pagefrom=Common+Information+Model&subcatfrom=A&filefrom=A#mw-pages
p283
aV/w/index.php?title=Category:All_disambiguation_pages&pagefrom=Compartmentalization&subcatfrom=A&filefrom=A#mw-pages
p284
aV/w/index.php?title=Category:All_disambiguation_pages&pagefrom=Conceit+%28disambiguation%29&subcatfrom=A&filefrom=A#mw-pages
p285
aV/w/index.php?title=Category:All_disambiguation_pages&pagefrom=Conference+of+the+Birds+%28disambiguation%29&subcatfrom=A&filefrom=A#mw-pages
p286
aV/w/index.php?title=Category:All_disambiguation_pages&pagefrom=Connla+%28disambiguation%29&subcatfrom=A&filefrom=A#mw-pages
p287
aV/w/index.php?title=Category:All_disambiguation_pages&pagefrom=Constellation+%28disambiguation%29&subcatfrom=A&filefrom=A#mw-pages
p288
aV/w/index.php?title=Category:All_disambiguation_pages&pagefrom=Control+software&subcatfrom=A&filefrom=A#mw-pages
p289
aV/w/index.php?title=Category:All_disambiguation_pages&pagefrom=Cooper+County&subcatfrom=A&filefrom=A#mw-pages
p290
aV/w/index.php?title=Category:All_disambiguation_pages&pagefrom=Cor+Jesu&subcatfrom=A&filefrom=A#mw-pages
p291
aV/w/index.php?title=Category:All_disambiguation_pages&pagefrom=Corn+earworm&subcatfrom=A&filefrom=A#mw-pages
p292
aV/w/index.php?title=Category:All_disambiguation_pages&pagefrom=Correa&subcatfrom=A&filefrom=A#mw-pages
p293
aV/w/index.php?title=Category:All_disambiguation_pages&pagefrom=Cosne&subcatfrom=A&filefrom=A#mw-pages
p294
aV/w/index.php?title=Category:All_disambiguation_pages&pagefrom=Council+%28disambiguation%29&subcatfrom=A&filefrom=A#mw-pages
p295
aV/w/index.php?title=Category:All_disambiguation_pages&pagefrom=County+Road+511&subcatfrom=A&filefrom=A#mw-pages
p296
aV/w/index.php?title=Category:All_disambiguation_pages&pagefrom=Covering&subcatfrom=A&filefrom=A#mw-pages
p297
aV/w/index.php?title=Category:All_disambiguation_pages&pagefrom=CPOST&subcatfrom=A&filefrom=A#mw-pages
p298
aV/w/index.php?title=Category:All_disambiguation_pages&pagefrom=Craig+Thomson&subcatfrom=A&filefrom=A#mw-pages
p299
aV/w/index.php?title=Category:All_disambiguation_pages&pagefrom=Crazy+Eyes+%28disambiguation%29&subcatfrom=A&filefrom=A#mw-pages
p300
aV/w/index.php?title=Category:All_disambiguation_pages&pagefrom=Creswick+%28disambiguation%29&subcatfrom=A&filefrom=A#mw-pages
p301
aV/w/index.php?title=Category:All_disambiguation_pages&pagefrom=Cristo&subcatfrom=A&filefrom=A#mw-pages
p302
aV/w/index.php?title=Category:All_disambiguation_pages&pagefrom=Cropwell&subcatfrom=A&filefrom=A#mw-pages
p303
aV/w/index.php?title=Category:All_disambiguation_pages&pagefrom=Crowville&subcatfrom=A&filefrom=A#mw-pages
p304
aV/w/index.php?title=Category:All_disambiguation_pages&pagefrom=Crystal+Park&subcatfrom=A&filefrom=A#mw-pages
p305
aV/w/index.php?title=Category:All_disambiguation_pages&pagefrom=CTIA&subcatfrom=A&filefrom=A#mw-pages
p306
aV/w/index.php?title=Category:All_disambiguation_pages&pagefrom=Culberson&subcatfrom=A&filefrom=A#mw-pages
p307
aV/w/index.php?title=Category:All_disambiguation_pages&pagefrom=CUR&subcatfrom=A&filefrom=A#mw-pages
p308
aV/w/index.php?title=Category:All_disambiguation_pages&pagefrom=Custer+Township%2C+Michigan&subcatfrom=A&filefrom=A#mw-pages
p309
aV/w/index.php?title=Category:All_disambiguation_pages&pagefrom=CXT&subcatfrom=A&filefrom=A#mw-pages
p310
aV/w/index.php?title=Category:All_disambiguation_pages&pagefrom=Cyrus+%28disambiguation%29&subcatfrom=A&filefrom=A#mw-pages
p311
aV/w/index.php?title=Category:All_disambiguation_pages&pagefrom=D.+flavescens&subcatfrom=A&filefrom=A#mw-pages
p312
aV/w/index.php?title=Category:All_disambiguation_pages&pagefrom=D101&subcatfrom=A&filefrom=A#mw-pages
p313
aV/w/index.php?title=Category:All_disambiguation_pages&pagefrom=Dagher&subcatfrom=A&filefrom=A#mw-pages
p314
aV/w/index.php?title=Category:All_disambiguation_pages&pagefrom=Dakar+International+Airport&subcatfrom=A&filefrom=A#mw-pages
p315
aV/w/index.php?title=Category:All_disambiguation_pages&pagefrom=Damage+Done%2C+The%0AThe+Damage+Done&subcatfrom=A&filefrom=A#mw-pages
p316
aV/w/index.php?title=Category:All_disambiguation_pages&pagefrom=Dana+Glover+%28disambiguation%29&subcatfrom=A&filefrom=A#mw-pages
p317
aV/w/index.php?title=Category:All_disambiguation_pages&pagefrom=Daniel+Bartlett&subcatfrom=A&filefrom=A#mw-pages
p318
aV/w/index.php?title=Category:All_disambiguation_pages&pagefrom=Daniel+Kim&subcatfrom=A&filefrom=A#mw-pages
p319
aV/w/index.php?title=Category:All_disambiguation_pages&pagefrom=Daniel+Wells&subcatfrom=A&filefrom=A#mw-pages
p320
aV/w/index.php?title=Category:All_disambiguation_pages&pagefrom=Daoxue&subcatfrom=A&filefrom=A#mw-pages
p321
aV/w/index.php?title=Category:All_disambiguation_pages&pagefrom=Dark+flight&subcatfrom=A&filefrom=A#mw-pages
p322
aV/w/index.php?title=Category:All_disambiguation_pages&pagefrom=Darreh-ye+Qir&subcatfrom=A&filefrom=A#mw-pages
p323
aV/w/index.php?title=Category:All_disambiguation_pages&pagefrom=Dashtabad&subcatfrom=A&filefrom=A#mw-pages
p324
aV/w/index.php?title=Category:All_disambiguation_pages&pagefrom=Davenport+Municipal+Airport&subcatfrom=A&filefrom=A#mw-pages
p325
aV/w/index.php?title=Category:All_disambiguation_pages&pagefrom=David+Coburn&subcatfrom=A&filefrom=A#mw-pages
p326
aV/w/index.php?title=Category:All_disambiguation_pages&pagefrom=David+Gordon&subcatfrom=A&filefrom=A#mw-pages
p327
aV/w/index.php?title=Category:All_disambiguation_pages&pagefrom=David+Leigh&subcatfrom=A&filefrom=A#mw-pages
p328
aV/w/index.php?title=Category:All_disambiguation_pages&pagefrom=David+Oh+%28disambiguation%29&subcatfrom=A&filefrom=A#mw-pages
p329
aV/w/index.php?title=Category:All_disambiguation_pages&pagefrom=David+Spector&subcatfrom=A&filefrom=A#mw-pages
p330
aV/w/index.php?title=Category:All_disambiguation_pages&pagefrom=Daviess+County+Courthouse&subcatfrom=A&filefrom=A#mw-pages
p331
aV/w/index.php?title=Category:All_disambiguation_pages&pagefrom=Daylesford&subcatfrom=A&filefrom=A#mw-pages
p332
aV/w/index.php?title=Category:All_disambiguation_pages&pagefrom=dd214%0ADD+214&subcatfrom=A&filefrom=A#mw-pages
p333
aV/w/index.php?title=Category:All_disambiguation_pages&pagefrom=Dead+Christ&subcatfrom=A&filefrom=A#mw-pages
p334
aV/w/index.php?title=Category:All_disambiguation_pages&pagefrom=Dearne&subcatfrom=A&filefrom=A#mw-pages
p335
aV/w/index.php?title=Category:All_disambiguation_pages&pagefrom=Decathlon+%28disambiguation%29&subcatfrom=A&filefrom=A#mw-pages
p336
aV/w/index.php?title=Category:All_disambiguation_pages&pagefrom=Deep+well&subcatfrom=A&filefrom=A#mw-pages
p337
aV/w/index.php?title=Category:All_disambiguation_pages&pagefrom=Deh+Kheyr&subcatfrom=A&filefrom=A#mw-pages
p338
aV/w/index.php?title=Category:All_disambiguation_pages&pagefrom=Del+Ray&subcatfrom=A&filefrom=A#mw-pages
p339
aV/w/index.php?title=Category:All_disambiguation_pages&pagefrom=Delta+Phi+Kappa&subcatfrom=A&filefrom=A#mw-pages
p340
aV/w/index.php?title=Category:All_disambiguation_pages&pagefrom=Demonstrator&subcatfrom=A&filefrom=A#mw-pages
p341
aV/w/index.php?title=Category:All_disambiguation_pages&pagefrom=Dennis+Nelson&subcatfrom=A&filefrom=A#mw-pages
p342
aV/w/index.php?title=Category:All_disambiguation_pages&pagefrom=Deponija&subcatfrom=A&filefrom=A#mw-pages
p343
aV/w/index.php?title=Category:All_disambiguation_pages&pagefrom=Dero&subcatfrom=A&filefrom=A#mw-pages
p344
aV/w/index.php?title=Category:All_disambiguation_pages&pagefrom=Desolation+Angels&subcatfrom=A&filefrom=A#mw-pages
p345
aV/w/index.php?title=Category:All_disambiguation_pages&pagefrom=Devereaux+House&subcatfrom=A&filefrom=A#mw-pages
p346
aV/w/index.php?title=Category:All_disambiguation_pages&pagefrom=Dexter+House&subcatfrom=A&filefrom=A#mw-pages
p347
aV/w/index.php?title=Category:All_disambiguation_pages&pagefrom=Dhivehi&subcatfrom=A&filefrom=A#mw-pages
p348
aV/w/index.php?title=Category:All_disambiguation_pages&pagefrom=Diane+Patrick&subcatfrom=A&filefrom=A#mw-pages
p349
aV/w/index.php?title=Category:All_disambiguation_pages&pagefrom=Die&subcatfrom=A&filefrom=A#mw-pages
p350
aV/w/index.php?title=Category:All_disambiguation_pages&pagefrom=Digital+fingerprint&subcatfrom=A&filefrom=A#mw-pages
p351
aV/w/index.php?title=Category:All_disambiguation_pages&pagefrom=Dinabad&subcatfrom=A&filefrom=A#mw-pages
p352
aV/w/index.php?title=Category:All_disambiguation_pages&pagefrom=Diocese+of+London+%28disambiguation%29&subcatfrom=A&filefrom=A#mw-pages
p353
aV/w/index.php?title=Category:All_disambiguation_pages&pagefrom=Direct+method&subcatfrom=A&filefrom=A#mw-pages
p354
aV/w/index.php?title=Category:All_disambiguation_pages&pagefrom=Disi&subcatfrom=A&filefrom=A#mw-pages
p355
aV/w/index.php?title=Category:All_disambiguation_pages&pagefrom=Dives&subcatfrom=A&filefrom=A#mw-pages
p356
aV/w/index.php?title=Category:All_disambiguation_pages&pagefrom=DJO&subcatfrom=A&filefrom=A#mw-pages
p357
aV/w/index.php?title=Category:All_disambiguation_pages&pagefrom=DnaB&subcatfrom=A&filefrom=A#mw-pages
p358
aV/w/index.php?title=Category:All_disambiguation_pages&pagefrom=Dobry+%28disambiguation%29&subcatfrom=A&filefrom=A#mw-pages
p359
aV/w/index.php?title=Category:All_disambiguation_pages&pagefrom=Dog+years&subcatfrom=A&filefrom=A#mw-pages
p360
aV/w/index.php?title=Category:All_disambiguation_pages&pagefrom=Dolsin&subcatfrom=A&filefrom=A#mw-pages
p361
aV/w/index.php?title=Category:All_disambiguation_pages&pagefrom=Don+Bosco+Technical+High+School&subcatfrom=A&filefrom=A#mw-pages
p362
aV/w/index.php?title=Category:All_disambiguation_pages&pagefrom=Don%27t+Stay&subcatfrom=A&filefrom=A#mw-pages
p363
aV/w/index.php?title=Category:All_disambiguation_pages&pagefrom=Donate&subcatfrom=A&filefrom=A#mw-pages
p364
aV/w/index.php?title=Category:All_disambiguation_pages&pagefrom=Donovans&subcatfrom=A&filefrom=A#mw-pages
p365
aV/w/index.php?title=Category:All_disambiguation_pages&pagefrom=Dorothy+Davis&subcatfrom=A&filefrom=A#mw-pages
p366
aV/w/index.php?title=Category:All_disambiguation_pages&pagefrom=Double+Event%2C+The%0AThe+Double+Event&subcatfrom=A&filefrom=A#mw-pages
p367
aV/w/index.php?title=Category:All_disambiguation_pages&pagefrom=Douglas+Johnston&subcatfrom=A&filefrom=A#mw-pages
p368
aV/w/index.php?title=Category:All_disambiguation_pages&pagefrom=Down+the+Drain&subcatfrom=A&filefrom=A#mw-pages
p369
aV/w/index.php?title=Category:All_disambiguation_pages&pagefrom=Drachen&subcatfrom=A&filefrom=A#mw-pages
p370
aV/w/index.php?title=Category:All_disambiguation_pages&pagefrom=Draper%2C+William%0AWilliam+Draper&subcatfrom=A&filefrom=A#mw-pages
p371
aV/w/index.php?title=Category:All_disambiguation_pages&pagefrom=Drill+Hall+%28disambiguation%29&subcatfrom=A&filefrom=A#mw-pages
p372
aV/w/index.php?title=Category:All_disambiguation_pages&pagefrom=Drums+of+Death&subcatfrom=A&filefrom=A#mw-pages
p373
aV/w/index.php?title=Category:All_disambiguation_pages&pagefrom=Dual&subcatfrom=A&filefrom=A#mw-pages
p374
aV/w/index.php?title=Category:All_disambiguation_pages&pagefrom=Dudek+%28disambiguation%29&subcatfrom=A&filefrom=A#mw-pages
p375
aV/w/index.php?title=Category:All_disambiguation_pages&pagefrom=Dule&subcatfrom=A&filefrom=A#mw-pages
p376
aV/w/index.php?title=Category:All_disambiguation_pages&pagefrom=Dungal+%28disambiguation%29&subcatfrom=A&filefrom=A#mw-pages
p377
aV/w/index.php?title=Category:All_disambiguation_pages&pagefrom=Durham+Gospel+Fragment&subcatfrom=A&filefrom=A#mw-pages
p378
aV/w/index.php?title=Category:All_disambiguation_pages&pagefrom=DVLF&subcatfrom=A&filefrom=A#mw-pages
p379
aV/w/index.php?title=Category:All_disambiguation_pages&pagefrom=Dylan+Thomas+%28disambiguation%29&subcatfrom=A&filefrom=A#mw-pages
p380
aV/w/index.php?title=Category:All_disambiguation_pages&pagefrom=E.+crispa&subcatfrom=A&filefrom=A#mw-pages
p381
aV/w/index.php?title=Category:All_disambiguation_pages&pagefrom=E94&subcatfrom=A&filefrom=A#mw-pages
p382
aV/w/index.php?title=Category:All_disambiguation_pages&pagefrom=Ealhmund&subcatfrom=A&filefrom=A#mw-pages
p383
aV/w/index.php?title=Category:All_disambiguation_pages&pagefrom=East+Antrim&subcatfrom=A&filefrom=A#mw-pages
p384
aV/w/index.php?title=Category:All_disambiguation_pages&pagefrom=Eastcliff&subcatfrom=A&filefrom=A#mw-pages
p385
aV/w/index.php?title=Category:All_disambiguation_pages&pagefrom=EB-1&subcatfrom=A&filefrom=A#mw-pages
p386
aV/w/index.php?title=Category:All_disambiguation_pages&pagefrom=Echo-class+survey+ship&subcatfrom=A&filefrom=A#mw-pages
p387
aV/w/index.php?title=Category:All_disambiguation_pages&pagefrom=Ed+Roberts&subcatfrom=A&filefrom=A#mw-pages
p388
aV/w/index.php?title=Category:All_disambiguation_pages&pagefrom=Edgemont+Park&subcatfrom=A&filefrom=A#mw-pages
p389
aV/w/index.php?title=Category:All_disambiguation_pages&pagefrom=Edmund+Prideaux&subcatfrom=A&filefrom=A#mw-pages
p390
aV/w/index.php?title=Category:All_disambiguation_pages&pagefrom=Edward+Best&subcatfrom=A&filefrom=A#mw-pages
p391
aV/w/index.php?title=Category:All_disambiguation_pages&pagefrom=Edward+Gibson+%28disambiguation%29&subcatfrom=A&filefrom=A#mw-pages
p392
aV/w/index.php?title=Category:All_disambiguation_pages&pagefrom=Edward+Morrison&subcatfrom=A&filefrom=A#mw-pages
p393
aV/w/index.php?title=Category:All_disambiguation_pages&pagefrom=Edward+Wells&subcatfrom=A&filefrom=A#mw-pages
p394
aV/w/index.php?title=Category:All_disambiguation_pages&pagefrom=EEU+%28disambiguation%29&subcatfrom=A&filefrom=A#mw-pages
p395
aV/w/index.php?title=Category:All_disambiguation_pages&pagefrom=EGP&subcatfrom=A&filefrom=A#mw-pages
p396
aV/w/index.php?title=Category:All_disambiguation_pages&pagefrom=EIM&subcatfrom=A&filefrom=A#mw-pages
p397
aV/w/index.php?title=Category:All_disambiguation_pages&pagefrom=El+Camino+High+School&subcatfrom=A&filefrom=A#mw-pages
p398
aV/w/index.php?title=Category:All_disambiguation_pages&pagefrom=El+Viento+%28disambiguation%29&subcatfrom=A&filefrom=A#mw-pages
p399
aV/w/index.php?title=Category:All_disambiguation_pages&pagefrom=Electoral+district+of+Wickham&subcatfrom=A&filefrom=A#mw-pages
p400
aV/w/index.php?title=Category:All_disambiguation_pages&pagefrom=Eleventh+Army&subcatfrom=A&filefrom=A#mw-pages
p401
aV/w/index.php?title=Category:All_disambiguation_pages&pagefrom=Elizabeth+Darcy&subcatfrom=A&filefrom=A#mw-pages
p402
aV/w/index.php?title=Category:All_disambiguation_pages&pagefrom=Elizabeth+Willis+%28disambiguation%29&subcatfrom=A&filefrom=A#mw-pages
p403
aV/w/index.php?title=Category:All_disambiguation_pages&pagefrom=Ellis%2C+Edward%0AEdward+Ellis&subcatfrom=A&filefrom=A#mw-pages
p404
aV/w/index.php?title=Category:All_disambiguation_pages&pagefrom=Elvington&subcatfrom=A&filefrom=A#mw-pages
p405
aV/w/index.php?title=Category:All_disambiguation_pages&pagefrom=Emergency+%28disambiguation%29&subcatfrom=A&filefrom=A#mw-pages
p406
aV/w/index.php?title=Category:All_disambiguation_pages&pagefrom=Emma+Watson+%28disambiguation%29&subcatfrom=A&filefrom=A#mw-pages
p407
aV/w/index.php?title=Category:All_disambiguation_pages&pagefrom=Empress+Fu+the+Younger&subcatfrom=A&filefrom=A#mw-pages
p408
aV/w/index.php?title=Category:All_disambiguation_pages&pagefrom=End+of+Me&subcatfrom=A&filefrom=A#mw-pages
p409
aV/w/index.php?title=Category:All_disambiguation_pages&pagefrom=Engl&subcatfrom=A&filefrom=A#mw-pages
p410
aV/w/index.php?title=Category:All_disambiguation_pages&pagefrom=Enrique+Ortiz&subcatfrom=A&filefrom=A#mw-pages
p411
aV/w/index.php?title=Category:All_disambiguation_pages&pagefrom=Eow&subcatfrom=A&filefrom=A#mw-pages
p412
aV/w/index.php?title=Category:All_disambiguation_pages&pagefrom=Epsilon+number&subcatfrom=A&filefrom=A#mw-pages
p413
aV/w/index.php?title=Category:All_disambiguation_pages&pagefrom=Erhardt+v.+Boaro&subcatfrom=A&filefrom=A#mw-pages
p414
aV/w/index.php?title=Category:All_disambiguation_pages&pagefrom=Erik+Holmberg&subcatfrom=A&filefrom=A#mw-pages
p415
aV/w/index.php?title=Category:All_disambiguation_pages&pagefrom=Ernici&subcatfrom=A&filefrom=A#mw-pages
p416
aV/w/index.php?title=Category:All_disambiguation_pages&pagefrom=Escape%2C+The%0AThe+Escape&subcatfrom=A&filefrom=A#mw-pages
p417
aV/w/index.php?title=Category:All_disambiguation_pages&pagefrom=Esp%C3%A1rrago&subcatfrom=A&filefrom=A#mw-pages
p418
aV/w/index.php?title=Category:All_disambiguation_pages&pagefrom=Esto&subcatfrom=A&filefrom=A#mw-pages
p419
aV/w/index.php?title=Category:All_disambiguation_pages&pagefrom=Etoko&subcatfrom=A&filefrom=A#mw-pages
p420
aV/w/index.php?title=Category:All_disambiguation_pages&pagefrom=Euphoria+Tour&subcatfrom=A&filefrom=A#mw-pages
p421
aV/w/index.php?title=Category:All_disambiguation_pages&pagefrom=Euthymius+II&subcatfrom=A&filefrom=A#mw-pages
p422
aV/w/index.php?title=Category:All_disambiguation_pages&pagefrom=Evening+News&subcatfrom=A&filefrom=A#mw-pages
p423
aV/w/index.php?title=Category:All_disambiguation_pages&pagefrom=EVF&subcatfrom=A&filefrom=A#mw-pages
p424
aV/w/index.php?title=Category:All_disambiguation_pages&pagefrom=Exclusive+Session&subcatfrom=A&filefrom=A#mw-pages
p425
aV/w/index.php?title=Category:All_disambiguation_pages&pagefrom=Expressways+in+Korea&subcatfrom=A&filefrom=A#mw-pages
p426
aV/w/index.php?title=Category:All_disambiguation_pages&pagefrom=Ezaki&subcatfrom=A&filefrom=A#mw-pages
p427
aV/w/index.php?title=Category:All_disambiguation_pages&pagefrom=F68&subcatfrom=A&filefrom=A#mw-pages
p428
aV/w/index.php?title=Category:All_disambiguation_pages&pagefrom=Faculty+commons&subcatfrom=A&filefrom=A#mw-pages
p429
aV/w/index.php?title=Category:All_disambiguation_pages&pagefrom=Fairmont+Historic+District&subcatfrom=A&filefrom=A#mw-pages
p430
aV/w/index.php?title=Category:All_disambiguation_pages&pagefrom=Fall+%28disambiguation%29&subcatfrom=A&filefrom=A#mw-pages
p431
aV/w/index.php?title=Category:All_disambiguation_pages&pagefrom=Family+Values+Tour+%2798&subcatfrom=A&filefrom=A#mw-pages
p432
aV/w/index.php?title=Category:All_disambiguation_pages&pagefrom=Farewell+My+Concubine&subcatfrom=A&filefrom=A#mw-pages
p433
aV/w/index.php?title=Category:All_disambiguation_pages&pagefrom=Fas&subcatfrom=A&filefrom=A#mw-pages
p434
aV/w/index.php?title=Category:All_disambiguation_pages&pagefrom=Faulbach+%28disambiguation%29&subcatfrom=A&filefrom=A#mw-pages
p435
aV/w/index.php?title=Category:All_disambiguation_pages&pagefrom=FCSC&subcatfrom=A&filefrom=A#mw-pages
p436
aV/w/index.php?title=Category:All_disambiguation_pages&pagefrom=Federico+Fern%C3%A1ndez&subcatfrom=A&filefrom=A#mw-pages
p437
aV/w/index.php?title=Category:All_disambiguation_pages&pagefrom=Felsberg&subcatfrom=A&filefrom=A#mw-pages
p438
aV/w/index.php?title=Category:All_disambiguation_pages&pagefrom=Ferguson+Lake&subcatfrom=A&filefrom=A#mw-pages
p439
aV/w/index.php?title=Category:All_disambiguation_pages&pagefrom=Ferry+crash&subcatfrom=A&filefrom=A#mw-pages
p440
aV/w/index.php?title=Category:All_disambiguation_pages&pagefrom=FHSS+%28disambiguation%29&subcatfrom=A&filefrom=A#mw-pages
p441
aV/w/index.php?title=Category:All_disambiguation_pages&pagefrom=Fifth+Legion&subcatfrom=A&filefrom=A#mw-pages
p442
aV/w/index.php?title=Category:All_disambiguation_pages&pagefrom=Fimbria&subcatfrom=A&filefrom=A#mw-pages
p443
aV/w/index.php?title=Category:All_disambiguation_pages&pagefrom=Finnish+church&subcatfrom=A&filefrom=A#mw-pages
p444
aV/w/index.php?title=Category:All_disambiguation_pages&pagefrom=Fireworks%2C+Should+We+See+It+from+the+Side+or+the+Bottom%3F&subcatfrom=A&filefrom=A#mw-pages
p445
aV/w/index.php?title=Category:All_disambiguation_pages&pagefrom=First+window&subcatfrom=A&filefrom=A#mw-pages
p446
aV/w/index.php?title=Category:All_disambiguation_pages&pagefrom=Fitzpatrick%2C+Richard%0ARichard+Fitzpatrick&subcatfrom=A&filefrom=A#mw-pages
p447
aV/w/index.php?title=Category:All_disambiguation_pages&pagefrom=Flag+code&subcatfrom=A&filefrom=A#mw-pages
p448
aV/w/index.php?title=Category:All_disambiguation_pages&pagefrom=Flavius+Valerius&subcatfrom=A&filefrom=A#mw-pages
p449
aV/w/index.php?title=Category:All_disambiguation_pages&pagefrom=Flight+427&subcatfrom=A&filefrom=A#mw-pages
p450
aV/w/index.php?title=Category:All_disambiguation_pages&pagefrom=Florence+station&subcatfrom=A&filefrom=A#mw-pages
p451
aV/w/index.php?title=Category:All_disambiguation_pages&pagefrom=Fly+High&subcatfrom=A&filefrom=A#mw-pages
p452
aV/w/index.php?title=Category:All_disambiguation_pages&pagefrom=Foggy+%28disambiguation%29&subcatfrom=A&filefrom=A#mw-pages
p453
aV/w/index.php?title=Category:All_disambiguation_pages&pagefrom=Foolish+Heart&subcatfrom=A&filefrom=A#mw-pages
p454
aV/w/index.php?title=Category:All_disambiguation_pages&pagefrom=Ford+Center+for+the+Performing+Arts&subcatfrom=A&filefrom=A#mw-pages
p455
aV/w/index.php?title=Category:All_disambiguation_pages&pagefrom=Forever+War&subcatfrom=A&filefrom=A#mw-pages
p456
aV/w/index.php?title=Category:All_disambiguation_pages&pagefrom=Fort+Dodge+%28disambiguation%29&subcatfrom=A&filefrom=A#mw-pages
p457
aV/w/index.php?title=Category:All_disambiguation_pages&pagefrom=Forty+Green&subcatfrom=A&filefrom=A#mw-pages
p458
aV/w/index.php?title=Category:All_disambiguation_pages&pagefrom=Four+mirrors&subcatfrom=A&filefrom=A#mw-pages
p459
aV/w/index.php?title=Category:All_disambiguation_pages&pagefrom=Foxe&subcatfrom=A&filefrom=A#mw-pages
p460
aV/w/index.php?title=Category:All_disambiguation_pages&pagefrom=Francesco+d%27Este&subcatfrom=A&filefrom=A#mw-pages
p461
aV/w/index.php?title=Category:All_disambiguation_pages&pagefrom=Francis+Higgins&subcatfrom=A&filefrom=A#mw-pages
p462
aV/w/index.php?title=Category:All_disambiguation_pages&pagefrom=Francisco+Flores&subcatfrom=A&filefrom=A#mw-pages
p463
aV/w/index.php?title=Category:All_disambiguation_pages&pagefrom=Frank+Clancy&subcatfrom=A&filefrom=A#mw-pages
p464
aV/w/index.php?title=Category:All_disambiguation_pages&pagefrom=Frank+Moran+%28disambiguation%29&subcatfrom=A&filefrom=A#mw-pages
p465
aV/w/index.php?title=Category:All_disambiguation_pages&pagefrom=Franklin+Davies&subcatfrom=A&filefrom=A#mw-pages
p466
aV/w/index.php?title=Category:All_disambiguation_pages&pagefrom=Fraxinea&subcatfrom=A&filefrom=A#mw-pages
p467
aV/w/index.php?title=Category:All_disambiguation_pages&pagefrom=Frederick+Betts&subcatfrom=A&filefrom=A#mw-pages
p468
aV/w/index.php?title=Category:All_disambiguation_pages&pagefrom=Frederick+Rowe&subcatfrom=A&filefrom=A#mw-pages
p469
aV/w/index.php?title=Category:All_disambiguation_pages&pagefrom=Freecycle&subcatfrom=A&filefrom=A#mw-pages
p470
aV/w/index.php?title=Category:All_disambiguation_pages&pagefrom=French+Laotian&subcatfrom=A&filefrom=A#mw-pages
p471
aV/w/index.php?title=Category:All_disambiguation_pages&pagefrom=Friedrich+Philippi&subcatfrom=A&filefrom=A#mw-pages
p472
aV/w/index.php?title=Category:All_disambiguation_pages&pagefrom=From+Russia+with+Love&subcatfrom=A&filefrom=A#mw-pages
p473
aV/w/index.php?title=Category:All_disambiguation_pages&pagefrom=FSI&subcatfrom=A&filefrom=A#mw-pages
p474
aV/w/index.php?title=Category:All_disambiguation_pages&pagefrom=Fukuyama&subcatfrom=A&filefrom=A#mw-pages
p475
aV/w/index.php?title=Category:All_disambiguation_pages&pagefrom=Funnies&subcatfrom=A&filefrom=A#mw-pages
p476
aV/w/index.php?title=Category:All_disambiguation_pages&pagefrom=Fuzzy+math&subcatfrom=A&filefrom=A#mw-pages
p477
aV/w/index.php?title=Category:All_disambiguation_pages&pagefrom=G.4%2F31&subcatfrom=A&filefrom=A#mw-pages
p478
aV/w/index.php?title=Category:All_disambiguation_pages&pagefrom=Gabriele+Tinti&subcatfrom=A&filefrom=A#mw-pages
p479
aV/w/index.php?title=Category:All_disambiguation_pages&pagefrom=Gaius+Marcius+Censorinus&subcatfrom=A&filefrom=A#mw-pages
p480
aV/w/index.php?title=Category:All_disambiguation_pages&pagefrom=Gallagher+Elementary+School&subcatfrom=A&filefrom=A#mw-pages
p481
aV/w/index.php?title=Category:All_disambiguation_pages&pagefrom=Game+six&subcatfrom=A&filefrom=A#mw-pages
p482
aV/w/index.php?title=Category:All_disambiguation_pages&pagefrom=Ganjabad-e+Pain&subcatfrom=A&filefrom=A#mw-pages
p483
aV/w/index.php?title=Category:All_disambiguation_pages&pagefrom=Garden+%28disambiguation%29&subcatfrom=A&filefrom=A#mw-pages
p484
aV/w/index.php?title=Category:All_disambiguation_pages&pagefrom=Garner%2C+Alan%0AAlan+Garner+%28disambiguation%29&subcatfrom=A&filefrom=A#mw-pages
p485
aV/w/index.php?title=Category:All_disambiguation_pages&pagefrom=Gary+Russell+%28disambiguation%29&subcatfrom=A&filefrom=A#mw-pages
p486
aV/w/index.php?title=Category:All_disambiguation_pages&pagefrom=Gathering%2C+The%0AThe+Gathering&subcatfrom=A&filefrom=A#mw-pages
p487
aV/w/index.php?title=Category:All_disambiguation_pages&pagefrom=Gayil&subcatfrom=A&filefrom=A#mw-pages
p488
aV/w/index.php?title=Category:All_disambiguation_pages&pagefrom=GEAB&subcatfrom=A&filefrom=A#mw-pages
p489
aV/w/index.php?title=Category:All_disambiguation_pages&pagefrom=Gendarme+%28disambiguation%29&subcatfrom=A&filefrom=A#mw-pages
p490
aV/w/index.php?title=Category:All_disambiguation_pages&pagefrom=Generation+gap+%28disambiguation%29&subcatfrom=A&filefrom=A#mw-pages
p491
aV/w/index.php?title=Category:All_disambiguation_pages&pagefrom=Geoff+Richards&subcatfrom=A&filefrom=A#mw-pages
p492
aV/w/index.php?title=Category:All_disambiguation_pages&pagefrom=George+Barrett&subcatfrom=A&filefrom=A#mw-pages
p493
aV/w/index.php?title=Category:All_disambiguation_pages&pagefrom=George+Constantine&subcatfrom=A&filefrom=A#mw-pages
p494
aV/w/index.php?title=Category:All_disambiguation_pages&pagefrom=George+Gibson&subcatfrom=A&filefrom=A#mw-pages
p495
aV/w/index.php?title=Category:All_disambiguation_pages&pagefrom=George+Keim&subcatfrom=A&filefrom=A#mw-pages
p496
aV/w/index.php?title=Category:All_disambiguation_pages&pagefrom=George+Munger&subcatfrom=A&filefrom=A#mw-pages
p497
aV/w/index.php?title=Category:All_disambiguation_pages&pagefrom=George+Sheridan&subcatfrom=A&filefrom=A#mw-pages
p498
aV/w/index.php?title=Category:All_disambiguation_pages&pagefrom=George+Whitmore&subcatfrom=A&filefrom=A#mw-pages
p499
aV/w/index.php?title=Category:All_disambiguation_pages&pagefrom=Ger+FitzGerald&subcatfrom=A&filefrom=A#mw-pages
p500
aV/w/index.php?title=Category:All_disambiguation_pages&pagefrom=Germ&subcatfrom=A&filefrom=A#mw-pages
p501
aV/w/index.php?title=Category:All_disambiguation_pages&pagefrom=Gesture+%28disambiguation%29&subcatfrom=A&filefrom=A#mw-pages
p502
aV/w/index.php?title=Category:All_disambiguation_pages&pagefrom=GGJ&subcatfrom=A&filefrom=A#mw-pages
p503
aV/w/index.php?title=Category:All_disambiguation_pages&pagefrom=Ghotra+%28disambiguation%29&subcatfrom=A&filefrom=A#mw-pages
p504
aV/w/index.php?title=Category:All_disambiguation_pages&pagefrom=Gigafactory&subcatfrom=A&filefrom=A#mw-pages
p505
aV/w/index.php?title=Category:All_disambiguation_pages&pagefrom=Gilmore+station&subcatfrom=A&filefrom=A#mw-pages
p506
aV/w/index.php?title=Category:All_disambiguation_pages&pagefrom=Girl+Is+Mine%2C+The%0AThe+Girl+Is+Mine+%28disambiguation%29&subcatfrom=A&filefrom=A#mw-pages
p507
aV/w/index.php?title=Category:All_disambiguation_pages&pagefrom=Givry&subcatfrom=A&filefrom=A#mw-pages
p508
aV/w/index.php?title=Category:All_disambiguation_pages&pagefrom=Glazed+tile&subcatfrom=A&filefrom=A#mw-pages
p509
aV/w/index.php?title=Category:All_disambiguation_pages&pagefrom=Glenorchy&subcatfrom=A&filefrom=A#mw-pages
p510
aV/w/index.php?title=Category:All_disambiguation_pages&pagefrom=Glory+Hole%2C+The%0AThe+Glory+Hole+%28disambiguation%29&subcatfrom=A&filefrom=A#mw-pages
p511
aV/w/index.php?title=Category:All_disambiguation_pages&pagefrom=GMO+%28disambiguation%29&subcatfrom=A&filefrom=A#mw-pages
p512
aV/w/index.php?title=Category:All_disambiguation_pages&pagefrom=God+emperor&subcatfrom=A&filefrom=A#mw-pages
p513
aV/w/index.php?title=Category:All_disambiguation_pages&pagefrom=Gohan+%28disambiguation%29&subcatfrom=A&filefrom=A#mw-pages
p514
aV/w/index.php?title=Category:All_disambiguation_pages&pagefrom=Goldacre&subcatfrom=A&filefrom=A#mw-pages
p515
aV/w/index.php?title=Category:All_disambiguation_pages&pagefrom=Goldmark&subcatfrom=A&filefrom=A#mw-pages
p516
aV/w/index.php?title=Category:All_disambiguation_pages&pagefrom=Gond&subcatfrom=A&filefrom=A#mw-pages
p517
aV/w/index.php?title=Category:All_disambiguation_pages&pagefrom=Good+Time&subcatfrom=A&filefrom=A#mw-pages
p518
aV/w/index.php?title=Category:All_disambiguation_pages&pagefrom=Gordius&subcatfrom=A&filefrom=A#mw-pages
p519
aV/w/index.php?title=Category:All_disambiguation_pages&pagefrom=Gorintaku&subcatfrom=A&filefrom=A#mw-pages
p520
aV/w/index.php?title=Category:All_disambiguation_pages&pagefrom=Gotcha&subcatfrom=A&filefrom=A#mw-pages
p521
aV/w/index.php?title=Category:All_disambiguation_pages&pagefrom=Governor+Belcher&subcatfrom=A&filefrom=A#mw-pages
p522
aV/w/index.php?title=Category:All_disambiguation_pages&pagefrom=Governor+Hamilton&subcatfrom=A&filefrom=A#mw-pages
p523
aV/w/index.php?title=Category:All_disambiguation_pages&pagefrom=Governor+Polk&subcatfrom=A&filefrom=A#mw-pages
p524
aV/w/index.php?title=Category:All_disambiguation_pages&pagefrom=Gozdawa&subcatfrom=A&filefrom=A#mw-pages
p525
aV/w/index.php?title=Category:All_disambiguation_pages&pagefrom=Gr%C4%85dki&subcatfrom=A&filefrom=A#mw-pages
p526
aV/w/index.php?title=Category:All_disambiguation_pages&pagefrom=Gran+Hermano&subcatfrom=A&filefrom=A#mw-pages
p527
aV/w/index.php?title=Category:All_disambiguation_pages&pagefrom=Grandvilliers&subcatfrom=A&filefrom=A#mw-pages
p528
aV/w/index.php?title=Category:All_disambiguation_pages&pagefrom=Grass+Lake+Township&subcatfrom=A&filefrom=A#mw-pages
p529
aV/w/index.php?title=Category:All_disambiguation_pages&pagefrom=Great+Betrayal%2C+The%0AThe+Great+Betrayal&subcatfrom=A&filefrom=A#mw-pages
p530
aV/w/index.php?title=Category:All_disambiguation_pages&pagefrom=Greater+Reading&subcatfrom=A&filefrom=A#mw-pages
p531
aV/w/index.php?title=Category:All_disambiguation_pages&pagefrom=Green+Knight+%28disambiguation%29&subcatfrom=A&filefrom=A#mw-pages
p532
aV/w/index.php?title=Category:All_disambiguation_pages&pagefrom=Greenlandic&subcatfrom=A&filefrom=A#mw-pages
p533
aV/w/index.php?title=Category:All_disambiguation_pages&pagefrom=Gregoretti&subcatfrom=A&filefrom=A#mw-pages
p534
aV/w/index.php?title=Category:All_disambiguation_pages&pagefrom=Grieg+%28disambiguation%29&subcatfrom=A&filefrom=A#mw-pages
p535
aV/w/index.php?title=Category:All_disambiguation_pages&pagefrom=Groeneveld&subcatfrom=A&filefrom=A#mw-pages
p536
aV/w/index.php?title=Category:All_disambiguation_pages&pagefrom=Grove+Township&subcatfrom=A&filefrom=A#mw-pages
p537
aV/w/index.php?title=Category:All_disambiguation_pages&pagefrom=Gsmp&subcatfrom=A&filefrom=A#mw-pages
p538
aV/w/index.php?title=Category:All_disambiguation_pages&pagefrom=Guardia&subcatfrom=A&filefrom=A#mw-pages
p539
aV/w/index.php?title=Category:All_disambiguation_pages&pagefrom=Guillac&subcatfrom=A&filefrom=A#mw-pages
p540
aV/w/index.php?title=Category:All_disambiguation_pages&pagefrom=Gum+Corners%2C+Kentucky&subcatfrom=A&filefrom=A#mw-pages
p541
aV/w/index.php?title=Category:All_disambiguation_pages&pagefrom=Guoyu&subcatfrom=A&filefrom=A#mw-pages
p542
aV/w/index.php?title=Category:All_disambiguation_pages&pagefrom=Gutch&subcatfrom=A&filefrom=A#mw-pages
p543
aV/w/index.php?title=Category:All_disambiguation_pages&pagefrom=Gwilym+Davies&subcatfrom=A&filefrom=A#mw-pages
p544
aV/w/index.php?title=Category:All_disambiguation_pages&pagefrom=H.+exigua&subcatfrom=A&filefrom=A#mw-pages
p545
aV/w/index.php?title=Category:All_disambiguation_pages&pagefrom=Habakkuk+%28disambiguation%29&subcatfrom=A&filefrom=A#mw-pages
p546
aV/w/index.php?title=Category:All_disambiguation_pages&pagefrom=Hafner&subcatfrom=A&filefrom=A#mw-pages
p547
aV/w/index.php?title=Category:All_disambiguation_pages&pagefrom=Hajj+Hasan&subcatfrom=A&filefrom=A#mw-pages
p548
aV/w/index.php?title=Category:All_disambiguation_pages&pagefrom=Halhal%2C+Iran&subcatfrom=A&filefrom=A#mw-pages
p549
aV/w/index.php?title=Category:All_disambiguation_pages&pagefrom=Hamadryad+%28disambiguation%29&subcatfrom=A&filefrom=A#mw-pages
p550
aV/w/index.php?title=Category:All_disambiguation_pages&pagefrom=Hamnavoe&subcatfrom=A&filefrom=A#mw-pages
p551
aV/w/index.php?title=Category:All_disambiguation_pages&pagefrom=Hang+Lung+Plaza&subcatfrom=A&filefrom=A#mw-pages
p552
aV/w/index.php?title=Category:All_disambiguation_pages&pagefrom=Hans+%C3%98rsted&subcatfrom=A&filefrom=A#mw-pages
p553
aV/w/index.php?title=Category:All_disambiguation_pages&pagefrom=Happy+Valley%2C+New+Zealand&subcatfrom=A&filefrom=A#mw-pages
p554
aV/w/index.php?title=Category:All_disambiguation_pages&pagefrom=Hardley&subcatfrom=A&filefrom=A#mw-pages
p555
aV/w/index.php?title=Category:All_disambiguation_pages&pagefrom=Harmony+Hill&subcatfrom=A&filefrom=A#mw-pages
p556
aV/w/index.php?title=Category:All_disambiguation_pages&pagefrom=Harpal+Singh+%28disambiguation%29&subcatfrom=A&filefrom=A#mw-pages
p557
aV/w/index.php?title=Category:All_disambiguation_pages&pagefrom=Harry+Blount&subcatfrom=A&filefrom=A#mw-pages
p558
aV/w/index.php?title=Category:All_disambiguation_pages&pagefrom=Harry+Nye&subcatfrom=A&filefrom=A#mw-pages
p559
aV/w/index.php?title=Category:All_disambiguation_pages&pagefrom=Hartwig&subcatfrom=A&filefrom=A#mw-pages
p560
aV/w/index.php?title=Category:All_disambiguation_pages&pagefrom=Hasse%27s+theorem&subcatfrom=A&filefrom=A#mw-pages
p561
aV/w/index.php?title=Category:All_disambiguation_pages&pagefrom=Hauteroche&subcatfrom=A&filefrom=A#mw-pages
p562
aV/w/index.php?title=Category:All_disambiguation_pages&pagefrom=Haydn+Cello+Concerto&subcatfrom=A&filefrom=A#mw-pages
p563
aV/w/index.php?title=Category:All_disambiguation_pages&pagefrom=HCST&subcatfrom=A&filefrom=A#mw-pages
p564
aV/w/index.php?title=Category:All_disambiguation_pages&pagefrom=Heart+of+a+Woman&subcatfrom=A&filefrom=A#mw-pages
p565
aV/w/index.php?title=Category:All_disambiguation_pages&pagefrom=Hebbville&subcatfrom=A&filefrom=A#mw-pages
p566
aV/w/index.php?title=Category:All_disambiguation_pages&pagefrom=Heiberg%2C+Axel%0AAxel+Heiberg+%28disambiguation%29&subcatfrom=A&filefrom=A#mw-pages
p567
aV/w/index.php?title=Category:All_disambiguation_pages&pagefrom=Helen+Moore&subcatfrom=A&filefrom=A#mw-pages
p568
aV/w/index.php?title=Category:All_disambiguation_pages&pagefrom=Hello+Stranger+%28disambiguation%29&subcatfrom=A&filefrom=A#mw-pages
p569
aV/w/index.php?title=Category:All_disambiguation_pages&pagefrom=Hengameh&subcatfrom=A&filefrom=A#mw-pages
p570
aV/w/index.php?title=Category:All_disambiguation_pages&pagefrom=Henry+Brady&subcatfrom=A&filefrom=A#mw-pages
p571
aV/w/index.php?title=Category:All_disambiguation_pages&pagefrom=Henry+Ford+House&subcatfrom=A&filefrom=A#mw-pages
p572
aV/w/index.php?title=Category:All_disambiguation_pages&pagefrom=Henry+Lake&subcatfrom=A&filefrom=A#mw-pages
p573
aV/w/index.php?title=Category:All_disambiguation_pages&pagefrom=Henry+Purdy&subcatfrom=A&filefrom=A#mw-pages
p574
aV/w/index.php?title=Category:All_disambiguation_pages&pagefrom=Henry+Worrall&subcatfrom=A&filefrom=A#mw-pages
p575
aV/w/index.php?title=Category:All_disambiguation_pages&pagefrom=Herbert+Lang+%28disambiguation%29&subcatfrom=A&filefrom=A#mw-pages
p576
aV/w/index.php?title=Category:All_disambiguation_pages&pagefrom=Hermaea&subcatfrom=A&filefrom=A#mw-pages
p577
aV/w/index.php?title=Category:All_disambiguation_pages&pagefrom=Hertha&subcatfrom=A&filefrom=A#mw-pages
p578
aV/w/index.php?title=Category:All_disambiguation_pages&pagefrom=Heyang&subcatfrom=A&filefrom=A#mw-pages
p579
aV/w/index.php?title=Category:All_disambiguation_pages&pagefrom=Hickory+%28disambiguation%29&subcatfrom=A&filefrom=A#mw-pages
p580
aV/w/index.php?title=Category:All_disambiguation_pages&pagefrom=High+Lonesome&subcatfrom=A&filefrom=A#mw-pages
p581
aV/w/index.php?title=Category:All_disambiguation_pages&pagefrom=Hihi+%28disambiguation%29&subcatfrom=A&filefrom=A#mw-pages
p582
aV/w/index.php?title=Category:All_disambiguation_pages&pagefrom=Hillside+Historic+District&subcatfrom=A&filefrom=A#mw-pages
p583
aV/w/index.php?title=Category:All_disambiguation_pages&pagefrom=Hirabayashi+Station&subcatfrom=A&filefrom=A#mw-pages
p584
aV/w/index.php?title=Category:All_disambiguation_pages&pagefrom=History+of+Georgia&subcatfrom=A&filefrom=A#mw-pages
p585
aV/w/index.php?title=Category:All_disambiguation_pages&pagefrom=HLB&subcatfrom=A&filefrom=A#mw-pages
p586
aV/w/index.php?title=Category:All_disambiguation_pages&pagefrom=Hochstetten&subcatfrom=A&filefrom=A#mw-pages
p587
aV/w/index.php?title=Category:All_disambiguation_pages&pagefrom=Hohenzollernplatz&subcatfrom=A&filefrom=A#mw-pages
p588
aV/w/index.php?title=Category:All_disambiguation_pages&pagefrom=Holle+%28disambiguation%29&subcatfrom=A&filefrom=A#mw-pages
p589
aV/w/index.php?title=Category:All_disambiguation_pages&pagefrom=Holy+Barbarians&subcatfrom=A&filefrom=A#mw-pages
p590
aV/w/index.php?title=Category:All_disambiguation_pages&pagefrom=Home+Township&subcatfrom=A&filefrom=A#mw-pages
p591
aV/w/index.php?title=Category:All_disambiguation_pages&pagefrom=Honeymoon+Lane&subcatfrom=A&filefrom=A#mw-pages
p592
aV/w/index.php?title=Category:All_disambiguation_pages&pagefrom=H%E1%BB%A3p+%C4%90%E1%BB%A9c&subcatfrom=A&filefrom=A#mw-pages
p593
aV/w/index.php?title=Category:All_disambiguation_pages&pagefrom=Horka&subcatfrom=A&filefrom=A#mw-pages
p594
aV/w/index.php?title=Category:All_disambiguation_pages&pagefrom=Hortulus&subcatfrom=A&filefrom=A#mw-pages
p595
aV/w/index.php?title=Category:All_disambiguation_pages&pagefrom=Hotel+Astoria&subcatfrom=A&filefrom=A#mw-pages
p596
aV/w/index.php?title=Category:All_disambiguation_pages&pagefrom=House+Rules&subcatfrom=A&filefrom=A#mw-pages
p597
aV/w/index.php?title=Category:All_disambiguation_pages&pagefrom=Howard+Rose&subcatfrom=A&filefrom=A#mw-pages
p598
aV/w/index.php?title=Category:All_disambiguation_pages&pagefrom=HRH+%28disambiguation%29&subcatfrom=A&filefrom=A#mw-pages
p599
aV/w/index.php?title=Category:All_disambiguation_pages&pagefrom=Huanan&subcatfrom=A&filefrom=A#mw-pages
p600
aV/w/index.php?title=Category:All_disambiguation_pages&pagefrom=Hue+and+Cry&subcatfrom=A&filefrom=A#mw-pages
p601
aV/w/index.php?title=Category:All_disambiguation_pages&pagefrom=Hugh+Thompson&subcatfrom=A&filefrom=A#mw-pages
p602
aV/w/index.php?title=Category:All_disambiguation_pages&pagefrom=Human+skin+mask&subcatfrom=A&filefrom=A#mw-pages
p603
aV/w/index.php?title=Category:All_disambiguation_pages&pagefrom=Hunshyal&subcatfrom=A&filefrom=A#mw-pages
p604
aV/w/index.php?title=Category:All_disambiguation_pages&pagefrom=Hurst+Bell&subcatfrom=A&filefrom=A#mw-pages
p605
aV/w/index.php?title=Category:All_disambiguation_pages&pagefrom=HXL&subcatfrom=A&filefrom=A#mw-pages
p606
aV/w/index.php?title=Category:All_disambiguation_pages&pagefrom=Hypomnemata&subcatfrom=A&filefrom=A#mw-pages
p607
aV/w/index.php?title=Category:All_disambiguation_pages&pagefrom=I+Hope&subcatfrom=A&filefrom=A#mw-pages
p608
aV/w/index.php?title=Category:All_disambiguation_pages&pagefrom=I.+minutus&subcatfrom=A&filefrom=A#mw-pages
p609
aV/w/index.php?title=Category:All_disambiguation_pages&pagefrom=I485&subcatfrom=A&filefrom=A#mw-pages
p610
aV/w/index.php?title=Category:All_disambiguation_pages&pagefrom=Ian+Murphy&subcatfrom=A&filefrom=A#mw-pages
p611
aV/w/index.php?title=Category:All_disambiguation_pages&pagefrom=IBRA+%28disambiguation%29&subcatfrom=A&filefrom=A#mw-pages
p612
aV/w/index.php?title=Category:All_disambiguation_pages&pagefrom=Ichhapur+%28disambiguation%29&subcatfrom=A&filefrom=A#mw-pages
p613
aV/w/index.php?title=Category:All_disambiguation_pages&pagefrom=Idiot+box&subcatfrom=A&filefrom=A#mw-pages
p614
aV/w/index.php?title=Category:All_disambiguation_pages&pagefrom=IFPA&subcatfrom=A&filefrom=A#mw-pages
p615
aV/w/index.php?title=Category:All_disambiguation_pages&pagefrom=Ihm+House&subcatfrom=A&filefrom=A#mw-pages
p616
aV/w/index.php?title=Category:All_disambiguation_pages&pagefrom=IL-9&subcatfrom=A&filefrom=A#mw-pages
p617
aV/w/index.php?title=Category:All_disambiguation_pages&pagefrom=Ilu&subcatfrom=A&filefrom=A#mw-pages
p618
aV/w/index.php?title=Category:All_disambiguation_pages&pagefrom=Immortal+Beloved+%28disambiguation%29&subcatfrom=A&filefrom=A#mw-pages
p619
aV/w/index.php?title=Category:All_disambiguation_pages&pagefrom=In+Action&subcatfrom=A&filefrom=A#mw-pages
p620
aV/w/index.php?title=Category:All_disambiguation_pages&pagefrom=In+Your+Eyes&subcatfrom=A&filefrom=A#mw-pages
p621
aV/w/index.php?title=Category:All_disambiguation_pages&pagefrom=Independence+Mall&subcatfrom=A&filefrom=A#mw-pages
p622
aV/w/index.php?title=Category:All_disambiguation_pages&pagefrom=Indianapolis+Airport+%28disambiguation%29&subcatfrom=A&filefrom=A#mw-pages
p623
aV/w/index.php?title=Category:All_disambiguation_pages&pagefrom=Infinite+Worlds&subcatfrom=A&filefrom=A#mw-pages
p624
aV/w/index.php?title=Category:All_disambiguation_pages&pagefrom=Inkwell+%28disambiguation%29&subcatfrom=A&filefrom=A#mw-pages
p625
aV/w/index.php?title=Category:All_disambiguation_pages&pagefrom=Instalment&subcatfrom=A&filefrom=A#mw-pages
p626
aV/w/index.php?title=Category:All_disambiguation_pages&pagefrom=Interbay&subcatfrom=A&filefrom=A#mw-pages
p627
aV/w/index.php?title=Category:All_disambiguation_pages&pagefrom=Internet+archive+%28disambiguation%29&subcatfrom=A&filefrom=A#mw-pages
p628
aV/w/index.php?title=Category:All_disambiguation_pages&pagefrom=Intractability&subcatfrom=A&filefrom=A#mw-pages
p629
aV/w/index.php?title=Category:All_disambiguation_pages&pagefrom=Iojima%0AI%C5%8Djima&subcatfrom=A&filefrom=A#mw-pages
p630
aV/w/index.php?title=Category:All_disambiguation_pages&pagefrom=Iqbal+Town&subcatfrom=A&filefrom=A#mw-pages
p631
aV/w/index.php?title=Category:All_disambiguation_pages&pagefrom=Irish+women%27s+soccer+team&subcatfrom=A&filefrom=A#mw-pages
p632
aV/w/index.php?title=Category:All_disambiguation_pages&pagefrom=Is+There+Anybody+Out+There&subcatfrom=A&filefrom=A#mw-pages
p633
aV/w/index.php?title=Category:All_disambiguation_pages&pagefrom=Ishara+%28disambiguation%29&subcatfrom=A&filefrom=A#mw-pages
p634
aV/w/index.php?title=Category:All_disambiguation_pages&pagefrom=Islwyn+%28disambiguation%29&subcatfrom=A&filefrom=A#mw-pages
p635
aV/w/index.php?title=Category:All_disambiguation_pages&pagefrom=Istv%C3%A1n+%C3%81gh&subcatfrom=A&filefrom=A#mw-pages
p636
aV/w/index.php?title=Category:All_disambiguation_pages&pagefrom=Italian+Job+video+game+series%2C+The%0AThe+Italian+Job+video+game+series&subcatfrom=A&filefrom=A#mw-pages
p637
aV/w/index.php?title=Category:All_disambiguation_pages&pagefrom=Ivan+Bratko&subcatfrom=A&filefrom=A#mw-pages
p638
aV/w/index.php?title=Category:All_disambiguation_pages&pagefrom=Iwaki-kuni&subcatfrom=A&filefrom=A#mw-pages
p639
aV/w/index.php?title=Category:All_disambiguation_pages&pagefrom=J.+D.+Adams&subcatfrom=A&filefrom=A#mw-pages
p640
aV/w/index.php?title=Category:All_disambiguation_pages&pagefrom=Jack+Anthony&subcatfrom=A&filefrom=A#mw-pages
p641
aV/w/index.php?title=Category:All_disambiguation_pages&pagefrom=Jack+Kiefer&subcatfrom=A&filefrom=A#mw-pages
p642
aV/w/index.php?title=Category:All_disambiguation_pages&pagefrom=Jack+Welsh&subcatfrom=A&filefrom=A#mw-pages
p643
aV/w/index.php?title=Category:All_disambiguation_pages&pagefrom=Jacob+Schwartz&subcatfrom=A&filefrom=A#mw-pages
p644
aV/w/index.php?title=Category:All_disambiguation_pages&pagefrom=Jagie%C5%82%C5%82o+%28disambiguation%29&subcatfrom=A&filefrom=A#mw-pages
p645
aV/w/index.php?title=Category:All_disambiguation_pages&pagefrom=Jaleh&subcatfrom=A&filefrom=A#mw-pages
p646
aV/w/index.php?title=Category:All_disambiguation_pages&pagefrom=James+Bowie+High+School&subcatfrom=A&filefrom=A#mw-pages
p647
aV/w/index.php?title=Category:All_disambiguation_pages&pagefrom=James+Crow&subcatfrom=A&filefrom=A#mw-pages
p648
aV/w/index.php?title=Category:All_disambiguation_pages&pagefrom=James+Galbraith&subcatfrom=A&filefrom=A#mw-pages
p649
aV/w/index.php?title=Category:All_disambiguation_pages&pagefrom=James+Island&subcatfrom=A&filefrom=A#mw-pages
p650
aV/w/index.php?title=Category:All_disambiguation_pages&pagefrom=James+McCormick&subcatfrom=A&filefrom=A#mw-pages
p651
aV/w/index.php?title=Category:All_disambiguation_pages&pagefrom=James+Pike+%28disambiguation%29&subcatfrom=A&filefrom=A#mw-pages
p652
aV/w/index.php?title=Category:All_disambiguation_pages&pagefrom=James+Strong&subcatfrom=A&filefrom=A#mw-pages
p653
aV/w/index.php?title=Category:All_disambiguation_pages&pagefrom=Jamie+Cook+%28disambiguation%29&subcatfrom=A&filefrom=A#mw-pages
p654
aV/w/index.php?title=Category:All_disambiguation_pages&pagefrom=Janae&subcatfrom=A&filefrom=A#mw-pages
p655
aV/w/index.php?title=Category:All_disambiguation_pages&pagefrom=Jankowice&subcatfrom=A&filefrom=A#mw-pages
p656
aV/w/index.php?title=Category:All_disambiguation_pages&pagefrom=J%C3%A4rise&subcatfrom=A&filefrom=A#mw-pages
p657
aV/w/index.php?title=Category:All_disambiguation_pages&pagefrom=Jason+Roach&subcatfrom=A&filefrom=A#mw-pages
p658
aV/w/index.php?title=Category:All_disambiguation_pages&pagefrom=Jay+Clark&subcatfrom=A&filefrom=A#mw-pages
p659
aV/w/index.php?title=Category:All_disambiguation_pages&pagefrom=Jean+Chartier&subcatfrom=A&filefrom=A#mw-pages
p660
aV/w/index.php?title=Category:All_disambiguation_pages&pagefrom=Jeff+Chang&subcatfrom=A&filefrom=A#mw-pages
p661
aV/w/index.php?title=Category:All_disambiguation_pages&pagefrom=Jeffrey+Shaw+%28disambiguation%29&subcatfrom=A&filefrom=A#mw-pages
p662
aV/w/index.php?title=Category:All_disambiguation_pages&pagefrom=Jens+Madsen&subcatfrom=A&filefrom=A#mw-pages
p663
aV/w/index.php?title=Category:All_disambiguation_pages&pagefrom=Jerry+May&subcatfrom=A&filefrom=A#mw-pages
p664
aV/w/index.php?title=Category:All_disambiguation_pages&pagefrom=Jesus+Gonzalez&subcatfrom=A&filefrom=A#mw-pages
p665
aV/w/index.php?title=Category:All_disambiguation_pages&pagefrom=JGW&subcatfrom=A&filefrom=A#mw-pages
p666
aV/w/index.php?title=Category:All_disambiguation_pages&pagefrom=Jilin+Aodong&subcatfrom=A&filefrom=A#mw-pages
p667
aV/w/index.php?title=Category:All_disambiguation_pages&pagefrom=Jimmy+Carter+incident&subcatfrom=A&filefrom=A#mw-pages
p668
aV/w/index.php?title=Category:All_disambiguation_pages&pagefrom=Jiri+Pokorny&subcatfrom=A&filefrom=A#mw-pages
p669
aV/w/index.php?title=Category:All_disambiguation_pages&pagefrom=Joan+Cummings&subcatfrom=A&filefrom=A#mw-pages
p670
aV/w/index.php?title=Category:All_disambiguation_pages&pagefrom=Joe+Cool%27s+Dodgem+School&subcatfrom=A&filefrom=A#mw-pages
p671
aV/w/index.php?title=Category:All_disambiguation_pages&pagefrom=Joey+Jones+%28disambiguation%29&subcatfrom=A&filefrom=A#mw-pages
p672
aV/w/index.php?title=Category:All_disambiguation_pages&pagefrom=John+Aldrich&subcatfrom=A&filefrom=A#mw-pages
p673
aV/w/index.php?title=Category:All_disambiguation_pages&pagefrom=John+Blain&subcatfrom=A&filefrom=A#mw-pages
p674
aV/w/index.php?title=Category:All_disambiguation_pages&pagefrom=John+Cannon&subcatfrom=A&filefrom=A#mw-pages
p675
aV/w/index.php?title=Category:All_disambiguation_pages&pagefrom=John+Courtenay&subcatfrom=A&filefrom=A#mw-pages
p676
aV/w/index.php?title=Category:All_disambiguation_pages&pagefrom=John+Dolan&subcatfrom=A&filefrom=A#mw-pages
p677
aV/w/index.php?title=Category:All_disambiguation_pages&pagefrom=John+Finegan&subcatfrom=A&filefrom=A#mw-pages
p678
aV/w/index.php?title=Category:All_disambiguation_pages&pagefrom=John+Gosling&subcatfrom=A&filefrom=A#mw-pages
p679
aV/w/index.php?title=Category:All_disambiguation_pages&pagefrom=John+Hennigan&subcatfrom=A&filefrom=A#mw-pages
p680
aV/w/index.php?title=Category:All_disambiguation_pages&pagefrom=John+Johnson+House&subcatfrom=A&filefrom=A#mw-pages
p681
aV/w/index.php?title=Category:All_disambiguation_pages&pagefrom=John+Lindberg+Trio&subcatfrom=A&filefrom=A#mw-pages
p682
aV/w/index.php?title=Category:All_disambiguation_pages&pagefrom=John+McCloy&subcatfrom=A&filefrom=A#mw-pages
p683
aV/w/index.php?title=Category:All_disambiguation_pages&pagefrom=John+Murdoch&subcatfrom=A&filefrom=A#mw-pages
p684
aV/w/index.php?title=Category:All_disambiguation_pages&pagefrom=John+Peel+%28disambiguation%29&subcatfrom=A&filefrom=A#mw-pages
p685
aV/w/index.php?title=Category:All_disambiguation_pages&pagefrom=John+Rodr%C3%ADguez&subcatfrom=A&filefrom=A#mw-pages
p686
aV/w/index.php?title=Category:All_disambiguation_pages&pagefrom=John+Somerville&subcatfrom=A&filefrom=A#mw-pages
p687
aV/w/index.php?title=Category:All_disambiguation_pages&pagefrom=John+Tomlinson&subcatfrom=A&filefrom=A#mw-pages
p688
aV/w/index.php?title=Category:All_disambiguation_pages&pagefrom=John+Williamson&subcatfrom=A&filefrom=A#mw-pages
p689
aV/w/index.php?title=Category:All_disambiguation_pages&pagefrom=Johnson%2C+Bob%0ABob+Johnson&subcatfrom=A&filefrom=A#mw-pages
p690
aV/w/index.php?title=Category:All_disambiguation_pages&pagefrom=Jon+Richardson&subcatfrom=A&filefrom=A#mw-pages
p691
aV/w/index.php?title=Category:All_disambiguation_pages&pagefrom=Jones+County&subcatfrom=A&filefrom=A#mw-pages
p692
aV/w/index.php?title=Category:All_disambiguation_pages&pagefrom=Jorge+Garbey&subcatfrom=A&filefrom=A#mw-pages
p693
aV/w/index.php?title=Category:All_disambiguation_pages&pagefrom=Jos%C3%A9+Mar%C3%ADa+P%C3%A9rez&subcatfrom=A&filefrom=A#mw-pages
p694
aV/w/index.php?title=Category:All_disambiguation_pages&pagefrom=Joseph+Brooks&subcatfrom=A&filefrom=A#mw-pages
p695
aV/w/index.php?title=Category:All_disambiguation_pages&pagefrom=Joseph+Hunt&subcatfrom=A&filefrom=A#mw-pages
p696
aV/w/index.php?title=Category:All_disambiguation_pages&pagefrom=Joseph+Rucker&subcatfrom=A&filefrom=A#mw-pages
p697
aV/w/index.php?title=Category:All_disambiguation_pages&pagefrom=Joshua+Wright&subcatfrom=A&filefrom=A#mw-pages
p698
aV/w/index.php?title=Category:All_disambiguation_pages&pagefrom=JPC&subcatfrom=A&filefrom=A#mw-pages
p699
aV/w/index.php?title=Category:All_disambiguation_pages&pagefrom=Juan+Mej%C3%ADa&subcatfrom=A&filefrom=A#mw-pages
p700
aV/w/index.php?title=Category:All_disambiguation_pages&pagefrom=Jugla&subcatfrom=A&filefrom=A#mw-pages
p701
aV/w/index.php?title=Category:All_disambiguation_pages&pagefrom=Julio+Moreno&subcatfrom=A&filefrom=A#mw-pages
p702
aV/w/index.php?title=Category:All_disambiguation_pages&pagefrom=Juo&subcatfrom=A&filefrom=A#mw-pages
p703
aV/w/index.php?title=Category:All_disambiguation_pages&pagefrom=Justice+Billings&subcatfrom=A&filefrom=A#mw-pages
p704
aV/w/index.php?title=Category:All_disambiguation_pages&pagefrom=Justice+Jackson&subcatfrom=A&filefrom=A#mw-pages
p705
aV/w/index.php?title=Category:All_disambiguation_pages&pagefrom=Justice+Stern&subcatfrom=A&filefrom=A#mw-pages
p706
aV/w/index.php?title=Category:All_disambiguation_pages&pagefrom=JVN&subcatfrom=A&filefrom=A#mw-pages
p707
aV/w/index.php?title=Category:All_disambiguation_pages&pagefrom=Kaaterskill&subcatfrom=A&filefrom=A#mw-pages
p708
aV/w/index.php?title=Category:All_disambiguation_pages&pagefrom=KAFF&subcatfrom=A&filefrom=A#mw-pages
p709
aV/w/index.php?title=Category:All_disambiguation_pages&pagefrom=Kaiser+%28disambiguation%29&subcatfrom=A&filefrom=A#mw-pages
p710
aV/w/index.php?title=Category:All_disambiguation_pages&pagefrom=Kalateh-ye+Hoseynabad&subcatfrom=A&filefrom=A#mw-pages
p711
aV/w/index.php?title=Category:All_disambiguation_pages&pagefrom=Kallik&subcatfrom=A&filefrom=A#mw-pages
p712
aV/w/index.php?title=Category:All_disambiguation_pages&pagefrom=Kamehameha&subcatfrom=A&filefrom=A#mw-pages
p713
aV/w/index.php?title=Category:All_disambiguation_pages&pagefrom=Kanchan&subcatfrom=A&filefrom=A#mw-pages
p714
aV/w/index.php?title=Category:All_disambiguation_pages&pagefrom=Kansai+%28disambiguation%29&subcatfrom=A&filefrom=A#mw-pages
p715
aV/w/index.php?title=Category:All_disambiguation_pages&pagefrom=Karachevsky&subcatfrom=A&filefrom=A#mw-pages
p716
aV/w/index.php?title=Category:All_disambiguation_pages&pagefrom=Karen+Clarke&subcatfrom=A&filefrom=A#mw-pages
p717
aV/w/index.php?title=Category:All_disambiguation_pages&pagefrom=K%C4%81rlis+Zari%C5%86%C5%A1&subcatfrom=A&filefrom=A#mw-pages
p718
aV/w/index.php?title=Category:All_disambiguation_pages&pagefrom=KASD&subcatfrom=A&filefrom=A#mw-pages
p719
aV/w/index.php?title=Category:All_disambiguation_pages&pagefrom=Kate+Griffin&subcatfrom=A&filefrom=A#mw-pages
p720
aV/w/index.php?title=Category:All_disambiguation_pages&pagefrom=KATK&subcatfrom=A&filefrom=A#mw-pages
p721
aV/w/index.php?title=Category:All_disambiguation_pages&pagefrom=Kay+Adams&subcatfrom=A&filefrom=A#mw-pages
p722
aV/w/index.php?title=Category:All_disambiguation_pages&pagefrom=Kbos%0AKBOS&subcatfrom=A&filefrom=A#mw-pages
p723
aV/w/index.php?title=Category:All_disambiguation_pages&pagefrom=KCVR&subcatfrom=A&filefrom=A#mw-pages
p724
aV/w/index.php?title=Category:All_disambiguation_pages&pagefrom=Keep+It+Together&subcatfrom=A&filefrom=A#mw-pages
p725
aV/w/index.php?title=Category:All_disambiguation_pages&pagefrom=Keith+Richardson&subcatfrom=A&filefrom=A#mw-pages
p726
aV/w/index.php?title=Category:All_disambiguation_pages&pagefrom=Kemeni&subcatfrom=A&filefrom=A#mw-pages
p727
aV/w/index.php?title=Category:All_disambiguation_pages&pagefrom=Kenmore+House&subcatfrom=A&filefrom=A#mw-pages
p728
aV/w/index.php?title=Category:All_disambiguation_pages&pagefrom=Kent+School+%28disambiguation%29&subcatfrom=A&filefrom=A#mw-pages
p729
aV/w/index.php?title=Category:All_disambiguation_pages&pagefrom=Kershaw&subcatfrom=A&filefrom=A#mw-pages
p730
aV/w/index.php?title=Category:All_disambiguation_pages&pagefrom=Kevin+Hughes&subcatfrom=A&filefrom=A#mw-pages
p731
aV/w/index.php?title=Category:All_disambiguation_pages&pagefrom=Keyt&subcatfrom=A&filefrom=A#mw-pages
p732
aV/w/index.php?title=Category:All_disambiguation_pages&pagefrom=Khabarovsky&subcatfrom=A&filefrom=A#mw-pages
p733
aV/w/index.php?title=Category:All_disambiguation_pages&pagefrom=Khao+Khiao&subcatfrom=A&filefrom=A#mw-pages
p734
aV/w/index.php?title=Category:All_disambiguation_pages&pagefrom=Khingan&subcatfrom=A&filefrom=A#mw-pages
p735
aV/w/index.php?title=Category:All_disambiguation_pages&pagefrom=Khunsorkh&subcatfrom=A&filefrom=A#mw-pages
p736
aV/w/index.php?title=Category:All_disambiguation_pages&pagefrom=Kie%C5%82pino&subcatfrom=A&filefrom=A#mw-pages
p737
aV/w/index.php?title=Category:All_disambiguation_pages&pagefrom=Killers&subcatfrom=A&filefrom=A#mw-pages
p738
aV/w/index.php?title=Category:All_disambiguation_pages&pagefrom=Kim+Seong-eun&subcatfrom=A&filefrom=A#mw-pages
p739
aV/w/index.php?title=Category:All_disambiguation_pages&pagefrom=King+Caesar+%28disambiguation%29&subcatfrom=A&filefrom=A#mw-pages
p740
aV/w/index.php?title=Category:All_disambiguation_pages&pagefrom=King%2C+David%0ADavid+King&subcatfrom=A&filefrom=A#mw-pages
p741
aV/w/index.php?title=Category:All_disambiguation_pages&pagefrom=Kinky&subcatfrom=A&filefrom=A#mw-pages
p742
aV/w/index.php?title=Category:All_disambiguation_pages&pagefrom=Kirkoswald&subcatfrom=A&filefrom=A#mw-pages
p743
aV/w/index.php?title=Category:All_disambiguation_pages&pagefrom=Kitashirakawa&subcatfrom=A&filefrom=A#mw-pages
p744
aV/w/index.php?title=Category:All_disambiguation_pages&pagefrom=Kjosen&subcatfrom=A&filefrom=A#mw-pages
p745
aV/w/index.php?title=Category:All_disambiguation_pages&pagefrom=Kleitomachos&subcatfrom=A&filefrom=A#mw-pages
p746
aV/w/index.php?title=Category:All_disambiguation_pages&pagefrom=Kluky%0AKluky&subcatfrom=A&filefrom=A#mw-pages
p747
aV/w/index.php?title=Category:All_disambiguation_pages&pagefrom=Kneser%27s+theorem&subcatfrom=A&filefrom=A#mw-pages
p748
aV/w/index.php?title=Category:All_disambiguation_pages&pagefrom=Knuth&subcatfrom=A&filefrom=A#mw-pages
p749
aV/w/index.php?title=Category:All_disambiguation_pages&pagefrom=Kogane+Station&subcatfrom=A&filefrom=A#mw-pages
p750
aV/w/index.php?title=Category:All_disambiguation_pages&pagefrom=Kolangal&subcatfrom=A&filefrom=A#mw-pages
p751
aV/w/index.php?title=Category:All_disambiguation_pages&pagefrom=Komoni&subcatfrom=A&filefrom=A#mw-pages
p752
aV/w/index.php?title=Category:All_disambiguation_pages&pagefrom=Kony&subcatfrom=A&filefrom=A#mw-pages
p753
aV/w/index.php?title=Category:All_disambiguation_pages&pagefrom=Korf&subcatfrom=A&filefrom=A#mw-pages
p754
aV/w/index.php?title=Category:All_disambiguation_pages&pagefrom=Kossi&subcatfrom=A&filefrom=A#mw-pages
p755
aV/w/index.php?title=Category:All_disambiguation_pages&pagefrom=Kovelamudi&subcatfrom=A&filefrom=A#mw-pages
p756
aV/w/index.php?title=Category:All_disambiguation_pages&pagefrom=KPOD&subcatfrom=A&filefrom=A#mw-pages
p757
aV/w/index.php?title=Category:All_disambiguation_pages&pagefrom=Krasnokamenka&subcatfrom=A&filefrom=A#mw-pages
p758
aV/w/index.php?title=Category:All_disambiguation_pages&pagefrom=Krishna+Reddy&subcatfrom=A&filefrom=A#mw-pages
p759
aV/w/index.php?title=Category:All_disambiguation_pages&pagefrom=Krumen&subcatfrom=A&filefrom=A#mw-pages
p760
aV/w/index.php?title=Category:All_disambiguation_pages&pagefrom=KSIF&subcatfrom=A&filefrom=A#mw-pages
p761
aV/w/index.php?title=Category:All_disambiguation_pages&pagefrom=KTSD&subcatfrom=A&filefrom=A#mw-pages
p762
aV/w/index.php?title=Category:All_disambiguation_pages&pagefrom=Kuibysheve&subcatfrom=A&filefrom=A#mw-pages
p763
aV/w/index.php?title=Category:All_disambiguation_pages&pagefrom=Kundu&subcatfrom=A&filefrom=A#mw-pages
p764
aV/w/index.php?title=Category:All_disambiguation_pages&pagefrom=Kurokawa&subcatfrom=A&filefrom=A#mw-pages
p765
aV/w/index.php?title=Category:All_disambiguation_pages&pagefrom=Kuwema+language&subcatfrom=A&filefrom=A#mw-pages
p766
aV/w/index.php?title=Category:All_disambiguation_pages&pagefrom=KWMC&subcatfrom=A&filefrom=A#mw-pages
p767
aV/w/index.php?title=Category:All_disambiguation_pages&pagefrom=Kyre+%28disambiguation%29&subcatfrom=A&filefrom=A#mw-pages
p768
aV/w/index.php?title=Category:All_disambiguation_pages&pagefrom=L.+rosea&subcatfrom=A&filefrom=A#mw-pages
p769
aV/w/index.php?title=Category:All_disambiguation_pages&pagefrom=La+Chorrera&subcatfrom=A&filefrom=A#mw-pages
p770
aV/w/index.php?title=Category:All_disambiguation_pages&pagefrom=La+Pintada&subcatfrom=A&filefrom=A#mw-pages
p771
aV/w/index.php?title=Category:All_disambiguation_pages&pagefrom=Labi&subcatfrom=A&filefrom=A#mw-pages
p772
aV/w/index.php?title=Category:All_disambiguation_pages&pagefrom=Ladislaus+II&subcatfrom=A&filefrom=A#mw-pages
p773
aV/w/index.php?title=Category:All_disambiguation_pages&pagefrom=Laggan&subcatfrom=A&filefrom=A#mw-pages
p774
aV/w/index.php?title=Category:All_disambiguation_pages&pagefrom=Lake+Constance+%28disambiguation%29&subcatfrom=A&filefrom=A#mw-pages
p775
aV/w/index.php?title=Category:All_disambiguation_pages&pagefrom=Lake%2C+The%0AThe+Lake&subcatfrom=A&filefrom=A#mw-pages
p776
aV/w/index.php?title=Category:All_disambiguation_pages&pagefrom=Lamard&subcatfrom=A&filefrom=A#mw-pages
p777
aV/w/index.php?title=Category:All_disambiguation_pages&pagefrom=Lancs&subcatfrom=A&filefrom=A#mw-pages
p778
aV/w/index.php?title=Category:All_disambiguation_pages&pagefrom=Langerhans&subcatfrom=A&filefrom=A#mw-pages
p779
aV/w/index.php?title=Category:All_disambiguation_pages&pagefrom=Lapine&subcatfrom=A&filefrom=A#mw-pages
p780
aV/w/index.php?title=Category:All_disambiguation_pages&pagefrom=Larry+Hayes&subcatfrom=A&filefrom=A#mw-pages
p781
aV/w/index.php?title=Category:All_disambiguation_pages&pagefrom=Laskowa&subcatfrom=A&filefrom=A#mw-pages
p782
aV/w/index.php?title=Category:All_disambiguation_pages&pagefrom=LATAM+%28disambiguation%29&subcatfrom=A&filefrom=A#mw-pages
p783
aV/w/index.php?title=Category:All_disambiguation_pages&pagefrom=Laughton&subcatfrom=A&filefrom=A#mw-pages
p784
aV/w/index.php?title=Category:All_disambiguation_pages&pagefrom=Lavagh&subcatfrom=A&filefrom=A#mw-pages
p785
aV/w/index.php?title=Category:All_disambiguation_pages&pagefrom=Lawrenceburg+Commercial+Historic+District&subcatfrom=A&filefrom=A#mw-pages
p786
aV/w/index.php?title=Category:All_disambiguation_pages&pagefrom=LCJ&subcatfrom=A&filefrom=A#mw-pages
p787
aV/w/index.php?title=Category:All_disambiguation_pages&pagefrom=Lead+pencil&subcatfrom=A&filefrom=A#mw-pages
p788
aV/w/index.php?title=Category:All_disambiguation_pages&pagefrom=LeBoeuf&subcatfrom=A&filefrom=A#mw-pages
p789
aV/w/index.php?title=Category:All_disambiguation_pages&pagefrom=Lee+Sang-min&subcatfrom=A&filefrom=A#mw-pages
p790
aV/w/index.php?title=Category:All_disambiguation_pages&pagefrom=Legality+of+drugs&subcatfrom=A&filefrom=A#mw-pages
p791
aV/w/index.php?title=Category:All_disambiguation_pages&pagefrom=Leisler&subcatfrom=A&filefrom=A#mw-pages
p792
aV/w/index.php?title=Category:All_disambiguation_pages&pagefrom=Lennart+Hansson&subcatfrom=A&filefrom=A#mw-pages
p793
aV/w/index.php?title=Category:All_disambiguation_pages&pagefrom=Leonid+Smirnov&subcatfrom=A&filefrom=A#mw-pages
p794
aV/w/index.php?title=Category:All_disambiguation_pages&pagefrom=Les+Rogers&subcatfrom=A&filefrom=A#mw-pages
p795
aV/w/index.php?title=Category:All_disambiguation_pages&pagefrom=Let+Love+Rule&subcatfrom=A&filefrom=A#mw-pages
p796
aV/w/index.php?title=Category:All_disambiguation_pages&pagefrom=Levels%2C+The%0AThe+Levels&subcatfrom=A&filefrom=A#mw-pages
p797
aV/w/index.php?title=Category:All_disambiguation_pages&pagefrom=Lexington&subcatfrom=A&filefrom=A#mw-pages
p798
aV/w/index.php?title=Category:All_disambiguation_pages&pagefrom=Li+Jun&subcatfrom=A&filefrom=A#mw-pages
p799
aV/w/index.php?title=Category:All_disambiguation_pages&pagefrom=Liberal+Party+leadership+election&subcatfrom=A&filefrom=A#mw-pages
p800
aV/w/index.php?title=Category:All_disambiguation_pages&pagefrom=Lick+Creek&subcatfrom=A&filefrom=A#mw-pages
p801
aV/w/index.php?title=Category:All_disambiguation_pages&pagefrom=Liftoff&subcatfrom=A&filefrom=A#mw-pages
p802
aV/w/index.php?title=Category:All_disambiguation_pages&pagefrom=Likeness&subcatfrom=A&filefrom=A#mw-pages
p803
aV/w/index.php?title=Category:All_disambiguation_pages&pagefrom=Lin+Hu&subcatfrom=A&filefrom=A#mw-pages
p804
aV/w/index.php?title=Category:All_disambiguation_pages&pagefrom=Lindsay+Jones&subcatfrom=A&filefrom=A#mw-pages
p805
aV/w/index.php?title=Category:All_disambiguation_pages&pagefrom=Lint&subcatfrom=A&filefrom=A#mw-pages
p806
aV/w/index.php?title=Category:All_disambiguation_pages&pagefrom=Lir+Abi&subcatfrom=A&filefrom=A#mw-pages
p807
aV/w/index.php?title=Category:All_disambiguation_pages&pagefrom=List+of+Italian+football+transfers+summer+2006&subcatfrom=A&filefrom=A#mw-pages
p808
aV/w/index.php?title=Category:All_disambiguation_pages&pagefrom=Lithuanian+Basketball+Cup&subcatfrom=A&filefrom=A#mw-pages
p809
aV/w/index.php?title=Category:All_disambiguation_pages&pagefrom=Little+Odessa&subcatfrom=A&filefrom=A#mw-pages
p810
aV/w/index.php?title=Category:All_disambiguation_pages&pagefrom=Liu+Xin&subcatfrom=A&filefrom=A#mw-pages
p811
aV/w/index.php?title=Category:All_disambiguation_pages&pagefrom=Live+Free+or+Die+%28disambiguation%29&subcatfrom=A&filefrom=A#mw-pages
p812
aV/w/index.php?title=Category:All_disambiguation_pages&pagefrom=Living+in+a+Dream&subcatfrom=A&filefrom=A#mw-pages
p813
aV/w/index.php?title=Category:All_disambiguation_pages&pagefrom=LLHS&subcatfrom=A&filefrom=A#mw-pages
p814
aV/w/index.php?title=Category:All_disambiguation_pages&pagefrom=Lobularia&subcatfrom=A&filefrom=A#mw-pages
p815
aV/w/index.php?title=Category:All_disambiguation_pages&pagefrom=Lofa&subcatfrom=A&filefrom=A#mw-pages
p816
aV/w/index.php?title=Category:All_disambiguation_pages&pagefrom=Loman&subcatfrom=A&filefrom=A#mw-pages
p817
aV/w/index.php?title=Category:All_disambiguation_pages&pagefrom=Long+Creek&subcatfrom=A&filefrom=A#mw-pages
p818
aV/w/index.php?title=Category:All_disambiguation_pages&pagefrom=Longitudinal+muscle+of+tongue&subcatfrom=A&filefrom=A#mw-pages
p819
aV/w/index.php?title=Category:All_disambiguation_pages&pagefrom=Lopez%2C+Oscar%0A%C3%93scar+L%C3%B3pez&subcatfrom=A&filefrom=A#mw-pages
p820
aV/w/index.php?title=Category:All_disambiguation_pages&pagefrom=Lord+Prior&subcatfrom=A&filefrom=A#mw-pages
p821
aV/w/index.php?title=Category:All_disambiguation_pages&pagefrom=Losen&subcatfrom=A&filefrom=A#mw-pages
p822
aV/w/index.php?title=Category:All_disambiguation_pages&pagefrom=Loubens&subcatfrom=A&filefrom=A#mw-pages
p823
aV/w/index.php?title=Category:All_disambiguation_pages&pagefrom=Louise+Latimer&subcatfrom=A&filefrom=A#mw-pages
p824
aV/w/index.php?title=Category:All_disambiguation_pages&pagefrom=Love+Is+Dead&subcatfrom=A&filefrom=A#mw-pages
p825
aV/w/index.php?title=Category:All_disambiguation_pages&pagefrom=Lovozero&subcatfrom=A&filefrom=A#mw-pages
p826
aV/w/index.php?title=Category:All_disambiguation_pages&pagefrom=LRDC&subcatfrom=A&filefrom=A#mw-pages
p827
aV/w/index.php?title=Category:All_disambiguation_pages&pagefrom=Lubno%0A%C5%81ubno&subcatfrom=A&filefrom=A#mw-pages
p828
aV/w/index.php?title=Category:All_disambiguation_pages&pagefrom=Lucky+Rabbit&subcatfrom=A&filefrom=A#mw-pages
p829
aV/w/index.php?title=Category:All_disambiguation_pages&pagefrom=Luis+Alberto&subcatfrom=A&filefrom=A#mw-pages
p830
aV/w/index.php?title=Category:All_disambiguation_pages&pagefrom=%C5%81ukowa&subcatfrom=A&filefrom=A#mw-pages
p831
aV/w/index.php?title=Category:All_disambiguation_pages&pagefrom=Luperini&subcatfrom=A&filefrom=A#mw-pages
p832
aV/w/index.php?title=Category:All_disambiguation_pages&pagefrom=Luzna&subcatfrom=A&filefrom=A#mw-pages
p833
aV/w/index.php?title=Category:All_disambiguation_pages&pagefrom=Lymphocyte+function-associated+antigen&subcatfrom=A&filefrom=A#mw-pages
p834
aV/w/index.php?title=Category:All_disambiguation_pages&pagefrom=M.+arabica&subcatfrom=A&filefrom=A#mw-pages
p835
aV/w/index.php?title=Category:All_disambiguation_pages&pagefrom=M27&subcatfrom=A&filefrom=A#mw-pages
p836
aV/w/index.php?title=Category:All_disambiguation_pages&pagefrom=MAAC&subcatfrom=A&filefrom=A#mw-pages
p837
aV/w/index.php?title=Category:All_disambiguation_pages&pagefrom=Mach+6&subcatfrom=A&filefrom=A#mw-pages
p838
aV/w/index.php?title=Category:All_disambiguation_pages&pagefrom=Mad+Dog&subcatfrom=A&filefrom=A#mw-pages
p839
aV/w/index.php?title=Category:All_disambiguation_pages&pagefrom=Madison+County+Schools&subcatfrom=A&filefrom=A#mw-pages
p840
aV/w/index.php?title=Category:All_disambiguation_pages&pagefrom=Magdalena+Gonz%C3%A1lez&subcatfrom=A&filefrom=A#mw-pages
p841
aV/w/index.php?title=Category:All_disambiguation_pages&pagefrom=Magnificents%2C+The%0AThe+Magnificents&subcatfrom=A&filefrom=A#mw-pages
p842
aV/w/index.php?title=Category:All_disambiguation_pages&pagefrom=Mahdi+%28disambiguation%29&subcatfrom=A&filefrom=A#mw-pages
p843
aV/w/index.php?title=Category:All_disambiguation_pages&pagefrom=Maine+High+School&subcatfrom=A&filefrom=A#mw-pages
p844
aV/w/index.php?title=Category:All_disambiguation_pages&pagefrom=Makhan+Singh&subcatfrom=A&filefrom=A#mw-pages
p845
aV/w/index.php?title=Category:All_disambiguation_pages&pagefrom=Malathi+%28disambiguation%29&subcatfrom=A&filefrom=A#mw-pages
p846
aV/w/index.php?title=Category:All_disambiguation_pages&pagefrom=Malinova&subcatfrom=A&filefrom=A#mw-pages
p847
aV/w/index.php?title=Category:All_disambiguation_pages&pagefrom=Maman&subcatfrom=A&filefrom=A#mw-pages
p848
aV/w/index.php?title=Category:All_disambiguation_pages&pagefrom=Manalapan&subcatfrom=A&filefrom=A#mw-pages
p849
aV/w/index.php?title=Category:All_disambiguation_pages&pagefrom=Maney+%28disambiguation%29&subcatfrom=A&filefrom=A#mw-pages
p850
aV/w/index.php?title=Category:All_disambiguation_pages&pagefrom=Mankulam&subcatfrom=A&filefrom=A#mw-pages
p851
aV/w/index.php?title=Category:All_disambiguation_pages&pagefrom=Mantralaya&subcatfrom=A&filefrom=A#mw-pages
p852
aV/w/index.php?title=Category:All_disambiguation_pages&pagefrom=Maple+Grove%2C+Wisconsin&subcatfrom=A&filefrom=A#mw-pages
p853
aV/w/index.php?title=Category:All_disambiguation_pages&pagefrom=Marc+Brown&subcatfrom=A&filefrom=A#mw-pages
p854
aV/w/index.php?title=Category:All_disambiguation_pages&pagefrom=Marcus+Claudius+Marcellus+%28disambiguation%29&subcatfrom=A&filefrom=A#mw-pages
p855
aV/w/index.php?title=Category:All_disambiguation_pages&pagefrom=Margaret+Martin&subcatfrom=A&filefrom=A#mw-pages
p856
aV/w/index.php?title=Category:All_disambiguation_pages&pagefrom=Maria+Maddalena&subcatfrom=A&filefrom=A#mw-pages
p857
aV/w/index.php?title=Category:All_disambiguation_pages&pagefrom=Marija+Sne%C5%BEna&subcatfrom=A&filefrom=A#mw-pages
p858
aV/w/index.php?title=Category:All_disambiguation_pages&pagefrom=Maritimus&subcatfrom=A&filefrom=A#mw-pages
p859
aV/w/index.php?title=Category:All_disambiguation_pages&pagefrom=Mark+Helfrich&subcatfrom=A&filefrom=A#mw-pages
p860
aV/w/index.php?title=Category:All_disambiguation_pages&pagefrom=Mark+Shulman&subcatfrom=A&filefrom=A#mw-pages
p861
aV/w/index.php?title=Category:All_disambiguation_pages&pagefrom=Markt&subcatfrom=A&filefrom=A#mw-pages
p862
aV/w/index.php?title=Category:All_disambiguation_pages&pagefrom=Marry+Me&subcatfrom=A&filefrom=A#mw-pages
p863
aV/w/index.php?title=Category:All_disambiguation_pages&pagefrom=Martin+Brown&subcatfrom=A&filefrom=A#mw-pages
p864
aV/w/index.php?title=Category:All_disambiguation_pages&pagefrom=Martin+Wagner&subcatfrom=A&filefrom=A#mw-pages
p865
aV/w/index.php?title=Category:All_disambiguation_pages&pagefrom=Mary+Aiken&subcatfrom=A&filefrom=A#mw-pages
p866
aV/w/index.php?title=Category:All_disambiguation_pages&pagefrom=Mary+Meyer&subcatfrom=A&filefrom=A#mw-pages
p867
aV/w/index.php?title=Category:All_disambiguation_pages&pagefrom=Masahiro+Mori&subcatfrom=A&filefrom=A#mw-pages
p868
aV/w/index.php?title=Category:All_disambiguation_pages&pagefrom=Masr&subcatfrom=A&filefrom=A#mw-pages
p869
aV/w/index.php?title=Category:All_disambiguation_pages&pagefrom=Matal&subcatfrom=A&filefrom=A#mw-pages
p870
aV/w/index.php?title=Category:All_disambiguation_pages&pagefrom=Matos%2C+Eddie%0AEddie+Matos&subcatfrom=A&filefrom=A#mw-pages
p871
aV/w/index.php?title=Category:All_disambiguation_pages&pagefrom=Matthew+Bruce&subcatfrom=A&filefrom=A#mw-pages
p872
aV/w/index.php?title=Category:All_disambiguation_pages&pagefrom=Mattie+Donnelly&subcatfrom=A&filefrom=A#mw-pages
p873
aV/w/index.php?title=Category:All_disambiguation_pages&pagefrom=Mauzi&subcatfrom=A&filefrom=A#mw-pages
p874
aV/w/index.php?title=Category:All_disambiguation_pages&pagefrom=May+Coup&subcatfrom=A&filefrom=A#mw-pages
p875
aV/w/index.php?title=Category:All_disambiguation_pages&pagefrom=Mazeppa&subcatfrom=A&filefrom=A#mw-pages
p876
aV/w/index.php?title=Category:All_disambiguation_pages&pagefrom=McBaine&subcatfrom=A&filefrom=A#mw-pages
p877
aV/w/index.php?title=Category:All_disambiguation_pages&pagefrom=McKenzie+Creek&subcatfrom=A&filefrom=A#mw-pages
p878
aV/w/index.php?title=Category:All_disambiguation_pages&pagefrom=ME1&subcatfrom=A&filefrom=A#mw-pages
p879
aV/w/index.php?title=Category:All_disambiguation_pages&pagefrom=Medco&subcatfrom=A&filefrom=A#mw-pages
p880
aV/w/index.php?title=Category:All_disambiguation_pages&pagefrom=Meena+Kumari+%28disambiguation%29&subcatfrom=A&filefrom=A#mw-pages
p881
aV/w/index.php?title=Category:All_disambiguation_pages&pagefrom=Meili+Xin+Shijie&subcatfrom=A&filefrom=A#mw-pages
p882
aV/w/index.php?title=Category:All_disambiguation_pages&pagefrom=Melle&subcatfrom=A&filefrom=A#mw-pages
p883
aV/w/index.php?title=Category:All_disambiguation_pages&pagefrom=Menahem+%28disambiguation%29&subcatfrom=A&filefrom=A#mw-pages
p884
aV/w/index.php?title=Category:All_disambiguation_pages&pagefrom=Mercantile+Bank&subcatfrom=A&filefrom=A#mw-pages
p885
aV/w/index.php?title=Category:All_disambiguation_pages&pagefrom=Merkin+%28disambiguation%29&subcatfrom=A&filefrom=A#mw-pages
p886
aV/w/index.php?title=Category:All_disambiguation_pages&pagefrom=Mess+of+Blues&subcatfrom=A&filefrom=A#mw-pages
p887
aV/w/index.php?title=Category:All_disambiguation_pages&pagefrom=Metope+%28disambiguation%29&subcatfrom=A&filefrom=A#mw-pages
p888
aV/w/index.php?title=Category:All_disambiguation_pages&pagefrom=Meyer%2C+Leo%0ALeo+Meyer&subcatfrom=A&filefrom=A#mw-pages
p889
aV/w/index.php?title=Category:All_disambiguation_pages&pagefrom=MI-6+%28disambiguation%29&subcatfrom=A&filefrom=A#mw-pages
p890
aV/w/index.php?title=Category:All_disambiguation_pages&pagefrom=Michael+Brough&subcatfrom=A&filefrom=A#mw-pages
p891
aV/w/index.php?title=Category:All_disambiguation_pages&pagefrom=Michael+Fogarty&subcatfrom=A&filefrom=A#mw-pages
p892
aV/w/index.php?title=Category:All_disambiguation_pages&pagefrom=Michael+Keen&subcatfrom=A&filefrom=A#mw-pages
p893
aV/w/index.php?title=Category:All_disambiguation_pages&pagefrom=Michael+of+Kiev&subcatfrom=A&filefrom=A#mw-pages
p894
aV/w/index.php?title=Category:All_disambiguation_pages&pagefrom=Michael+Tommy&subcatfrom=A&filefrom=A#mw-pages
p895
aV/w/index.php?title=Category:All_disambiguation_pages&pagefrom=Mick+Rogers&subcatfrom=A&filefrom=A#mw-pages
p896
aV/w/index.php?title=Category:All_disambiguation_pages&pagefrom=Middlebush&subcatfrom=A&filefrom=A#mw-pages
p897
aV/w/index.php?title=Category:All_disambiguation_pages&pagefrom=Midwest+%28disambiguation%29&subcatfrom=A&filefrom=A#mw-pages
p898
aV/w/index.php?title=Category:All_disambiguation_pages&pagefrom=Mihamleh&subcatfrom=A&filefrom=A#mw-pages
p899
aV/w/index.php?title=Category:All_disambiguation_pages&pagefrom=Mikha%C4%93l+I&subcatfrom=A&filefrom=A#mw-pages
p900
aV/w/index.php?title=Category:All_disambiguation_pages&pagefrom=Milena&subcatfrom=A&filefrom=A#mw-pages
p901
aV/w/index.php?title=Category:All_disambiguation_pages&pagefrom=Millcreek+Township&subcatfrom=A&filefrom=A#mw-pages
p902
aV/w/index.php?title=Category:All_disambiguation_pages&pagefrom=Milner&subcatfrom=A&filefrom=A#mw-pages
p903
aV/w/index.php?title=Category:All_disambiguation_pages&pagefrom=Minden+High+School&subcatfrom=A&filefrom=A#mw-pages
p904
aV/w/index.php?title=Category:All_disambiguation_pages&pagefrom=Ministry&subcatfrom=A&filefrom=A#mw-pages
p905
aV/w/index.php?title=Category:All_disambiguation_pages&pagefrom=Minsky&subcatfrom=A&filefrom=A#mw-pages
p906
aV/w/index.php?title=Category:All_disambiguation_pages&pagefrom=Mirnov&subcatfrom=A&filefrom=A#mw-pages
p907
aV/w/index.php?title=Category:All_disambiguation_pages&pagefrom=Missa&subcatfrom=A&filefrom=A#mw-pages
p908
aV/w/index.php?title=Category:All_disambiguation_pages&pagefrom=Mitchell%2C+Jack%0AJack+Mitchell&subcatfrom=A&filefrom=A#mw-pages
p909
aV/w/index.php?title=Category:All_disambiguation_pages&pagefrom=MJS&subcatfrom=A&filefrom=A#mw-pages
p910
aV/w/index.php?title=Category:All_disambiguation_pages&pagefrom=MNG+%28disambiguation%29&subcatfrom=A&filefrom=A#mw-pages
p911
aV/w/index.php?title=Category:All_disambiguation_pages&pagefrom=Moderato&subcatfrom=A&filefrom=A#mw-pages
p912
aV/w/index.php?title=Category:All_disambiguation_pages&pagefrom=Mohamed+Siad&subcatfrom=A&filefrom=A#mw-pages
p913
aV/w/index.php?title=Category:All_disambiguation_pages&pagefrom=Mojito+%28disambiguation%29&subcatfrom=A&filefrom=A#mw-pages
p914
aV/w/index.php?title=Category:All_disambiguation_pages&pagefrom=Momentos&subcatfrom=A&filefrom=A#mw-pages
p915
aV/w/index.php?title=Category:All_disambiguation_pages&pagefrom=Mongolian+barbecue+%28disambiguation%29&subcatfrom=A&filefrom=A#mw-pages
p916
aV/w/index.php?title=Category:All_disambiguation_pages&pagefrom=Monroe+Township%2C+Pennsylvania&subcatfrom=A&filefrom=A#mw-pages
p917
aV/w/index.php?title=Category:All_disambiguation_pages&pagefrom=Montenegrin+literature&subcatfrom=A&filefrom=A#mw-pages
p918
aV/w/index.php?title=Category:All_disambiguation_pages&pagefrom=Monument+High+School&subcatfrom=A&filefrom=A#mw-pages
p919
aV/w/index.php?title=Category:All_disambiguation_pages&pagefrom=Moorhouse&subcatfrom=A&filefrom=A#mw-pages
p920
aV/w/index.php?title=Category:All_disambiguation_pages&pagefrom=Morehead+Township%2C+North+Carolina&subcatfrom=A&filefrom=A#mw-pages
p921
aV/w/index.php?title=Category:All_disambiguation_pages&pagefrom=Morning+Star+Lake&subcatfrom=A&filefrom=A#mw-pages
p922
aV/w/index.php?title=Category:All_disambiguation_pages&pagefrom=Morwa&subcatfrom=A&filefrom=A#mw-pages
p923
aV/w/index.php?title=Category:All_disambiguation_pages&pagefrom=Mosul+Province&subcatfrom=A&filefrom=A#mw-pages
p924
aV/w/index.php?title=Category:All_disambiguation_pages&pagefrom=Mound+Valley&subcatfrom=A&filefrom=A#mw-pages
p925
aV/w/index.php?title=Category:All_disambiguation_pages&pagefrom=Mount+Hunter&subcatfrom=A&filefrom=A#mw-pages
p926
aV/w/index.php?title=Category:All_disambiguation_pages&pagefrom=Mount+Vernon+%28disambiguation%29&subcatfrom=A&filefrom=A#mw-pages
p927
aV/w/index.php?title=Category:All_disambiguation_pages&pagefrom=Mouzinho+de+Albuquerque&subcatfrom=A&filefrom=A#mw-pages
p928
aV/w/index.php?title=Category:All_disambiguation_pages&pagefrom=Mpanda+%28disambiguation%29&subcatfrom=A&filefrom=A#mw-pages
p929
aV/w/index.php?title=Category:All_disambiguation_pages&pagefrom=MRMC&subcatfrom=A&filefrom=A#mw-pages
p930
aV/w/index.php?title=Category:All_disambiguation_pages&pagefrom=Mtoni&subcatfrom=A&filefrom=A#mw-pages
p931
aV/w/index.php?title=Category:All_disambiguation_pages&pagefrom=Muhajir&subcatfrom=A&filefrom=A#mw-pages
p932
aV/w/index.php?title=Category:All_disambiguation_pages&pagefrom=Mullum&subcatfrom=A&filefrom=A#mw-pages
p933
aV/w/index.php?title=Category:All_disambiguation_pages&pagefrom=Munroe+%28disambiguation%29&subcatfrom=A&filefrom=A#mw-pages
p934
aV/w/index.php?title=Category:All_disambiguation_pages&pagefrom=Murphy%27s+Luck&subcatfrom=A&filefrom=A#mw-pages
p935
aV/w/index.php?title=Category:All_disambiguation_pages&pagefrom=Museum+Park&subcatfrom=A&filefrom=A#mw-pages
p936
aV/w/index.php?title=Category:All_disambiguation_pages&pagefrom=Mutatis+mutandis+%28disambiguation%29&subcatfrom=A&filefrom=A#mw-pages
p937
aV/w/index.php?title=Category:All_disambiguation_pages&pagefrom=My+Body&subcatfrom=A&filefrom=A#mw-pages
p938
aV/w/index.php?title=Category:All_disambiguation_pages&pagefrom=Myers+House&subcatfrom=A&filefrom=A#mw-pages
p939
aV/w/index.php?title=Category:All_disambiguation_pages&pagefrom=N+Train&subcatfrom=A&filefrom=A#mw-pages
p940
aV/w/index.php?title=Category:All_disambiguation_pages&pagefrom=NA-122&subcatfrom=A&filefrom=A#mw-pages
p941
aV/w/index.php?title=Category:All_disambiguation_pages&pagefrom=Nagalpur&subcatfrom=A&filefrom=A#mw-pages
p942
aV/w/index.php?title=Category:All_disambiguation_pages&pagefrom=Nakamura&subcatfrom=A&filefrom=A#mw-pages
p943
aV/w/index.php?title=Category:All_disambiguation_pages&pagefrom=Namivand&subcatfrom=A&filefrom=A#mw-pages
p944
aV/w/index.php?title=Category:All_disambiguation_pages&pagefrom=Nantucket+%28disambiguation%29&subcatfrom=A&filefrom=A#mw-pages
p945
aV/w/index.php?title=Category:All_disambiguation_pages&pagefrom=Nargeslu&subcatfrom=A&filefrom=A#mw-pages
p946
aV/w/index.php?title=Category:All_disambiguation_pages&pagefrom=Nasta&subcatfrom=A&filefrom=A#mw-pages
p947
aV/w/index.php?title=Category:All_disambiguation_pages&pagefrom=National+Aquatic+Centre+%28disambiguation%29&subcatfrom=A&filefrom=A#mw-pages
p948
aV/w/index.php?title=Category:All_disambiguation_pages&pagefrom=National+motto+of+the+Philippines&subcatfrom=A&filefrom=A#mw-pages
p949
aV/w/index.php?title=Category:All_disambiguation_pages&pagefrom=Nationwide+Bank&subcatfrom=A&filefrom=A#mw-pages
p950
aV/w/index.php?title=Category:All_disambiguation_pages&pagefrom=Navarrese+Civil+War&subcatfrom=A&filefrom=A#mw-pages
p951
aV/w/index.php?title=Category:All_disambiguation_pages&pagefrom=NBUF&subcatfrom=A&filefrom=A#mw-pages
p952
aV/w/index.php?title=Category:All_disambiguation_pages&pagefrom=Ndorobo+language&subcatfrom=A&filefrom=A#mw-pages
p953
aV/w/index.php?title=Category:All_disambiguation_pages&pagefrom=Neelbad&subcatfrom=A&filefrom=A#mw-pages
p954
aV/w/index.php?title=Category:All_disambiguation_pages&pagefrom=Neil+Miller&subcatfrom=A&filefrom=A#mw-pages
p955
aV/w/index.php?title=Category:All_disambiguation_pages&pagefrom=Neocladia&subcatfrom=A&filefrom=A#mw-pages
p956
aV/w/index.php?title=Category:All_disambiguation_pages&pagefrom=Net%2C+The%0AThe+Net&subcatfrom=A&filefrom=A#mw-pages
p957
aV/w/index.php?title=Category:All_disambiguation_pages&pagefrom=Never+Been+Kissed+%28disambiguation%29&subcatfrom=A&filefrom=A#mw-pages
p958
aV/w/index.php?title=Category:All_disambiguation_pages&pagefrom=New+England+200&subcatfrom=A&filefrom=A#mw-pages
p959
aV/w/index.php?title=Category:All_disambiguation_pages&pagefrom=New+Price+Is+Right%2C+The%0AThe+New+Price+Is+Right&subcatfrom=A&filefrom=A#mw-pages
p960
aV/w/index.php?title=Category:All_disambiguation_pages&pagefrom=New+York+State+Route+363+%28disambiguation%29&subcatfrom=A&filefrom=A#mw-pages
p961
aV/w/index.php?title=Category:All_disambiguation_pages&pagefrom=News+from+Nowhere+%28disambiguation%29&subcatfrom=A&filefrom=A#mw-pages
p962
aV/w/index.php?title=Category:All_disambiguation_pages&pagefrom=Ngaire&subcatfrom=A&filefrom=A#mw-pages
p963
aV/w/index.php?title=Category:All_disambiguation_pages&pagefrom=Nhan+Tong%0ANh%C3%A2n+T%C3%B4ng&subcatfrom=A&filefrom=A#mw-pages
p964
aV/w/index.php?title=Category:All_disambiguation_pages&pagefrom=Nicholas+Kendall&subcatfrom=A&filefrom=A#mw-pages
p965
aV/w/index.php?title=Category:All_disambiguation_pages&pagefrom=Nicola+Payne&subcatfrom=A&filefrom=A#mw-pages
p966
aV/w/index.php?title=Category:All_disambiguation_pages&pagefrom=Nigel+Hamilton&subcatfrom=A&filefrom=A#mw-pages
p967
aV/w/index.php?title=Category:All_disambiguation_pages&pagefrom=Nikita+Antipov&subcatfrom=A&filefrom=A#mw-pages
p968
aV/w/index.php?title=Category:All_disambiguation_pages&pagefrom=Nimeh+Kar&subcatfrom=A&filefrom=A#mw-pages
p969
aV/w/index.php?title=Category:All_disambiguation_pages&pagefrom=Nishi&subcatfrom=A&filefrom=A#mw-pages
p970
aV/w/index.php?title=Category:All_disambiguation_pages&pagefrom=NLAW&subcatfrom=A&filefrom=A#mw-pages
p971
aV/w/index.php?title=Category:All_disambiguation_pages&pagefrom=No+pain%2C+no+gain+%28disambiguation%29&subcatfrom=A&filefrom=A#mw-pages
p972
aV/w/index.php?title=Category:All_disambiguation_pages&pagefrom=Noel+Hall&subcatfrom=A&filefrom=A#mw-pages
p973
aV/w/index.php?title=Category:All_disambiguation_pages&pagefrom=Nonlocality&subcatfrom=A&filefrom=A#mw-pages
p974
aV/w/index.php?title=Category:All_disambiguation_pages&pagefrom=Norman&subcatfrom=A&filefrom=A#mw-pages
p975
aV/w/index.php?title=Category:All_disambiguation_pages&pagefrom=North+City&subcatfrom=A&filefrom=A#mw-pages
p976
aV/w/index.php?title=Category:All_disambiguation_pages&pagefrom=North+Zone&subcatfrom=A&filefrom=A#mw-pages
p977
aV/w/index.php?title=Category:All_disambiguation_pages&pagefrom=Northwest+Branch&subcatfrom=A&filefrom=A#mw-pages
p978
aV/w/index.php?title=Category:All_disambiguation_pages&pagefrom=Notebook+%28disambiguation%29&subcatfrom=A&filefrom=A#mw-pages
p979
aV/w/index.php?title=Category:All_disambiguation_pages&pagefrom=Novoalexandrovsky&subcatfrom=A&filefrom=A#mw-pages
p980
aV/w/index.php?title=Category:All_disambiguation_pages&pagefrom=Nowodwor%0ANowodw%C3%B3r&subcatfrom=A&filefrom=A#mw-pages
p981
aV/w/index.php?title=Category:All_disambiguation_pages&pagefrom=NSKK&subcatfrom=A&filefrom=A#mw-pages
p982
aV/w/index.php?title=Category:All_disambiguation_pages&pagefrom=Nuggets&subcatfrom=A&filefrom=A#mw-pages
p983
aV/w/index.php?title=Category:All_disambiguation_pages&pagefrom=Nutbag&subcatfrom=A&filefrom=A#mw-pages
p984
aV/w/index.php?title=Category:All_disambiguation_pages&pagefrom=NYPD+%28disambiguation%29&subcatfrom=A&filefrom=A#mw-pages
p985
aV/w/index.php?title=Category:All_disambiguation_pages&pagefrom=O16&subcatfrom=A&filefrom=A#mw-pages
p986
aV/w/index.php?title=Category:All_disambiguation_pages&pagefrom=Oath%2C+The%0AThe+Oath&subcatfrom=A&filefrom=A#mw-pages
p987
aV/w/index.php?title=Category:All_disambiguation_pages&pagefrom=OCA&subcatfrom=A&filefrom=A#mw-pages
p988
aV/w/index.php?title=Category:All_disambiguation_pages&pagefrom=OCRR&subcatfrom=A&filefrom=A#mw-pages
p989
aV/w/index.php?title=Category:All_disambiguation_pages&pagefrom=ODT&subcatfrom=A&filefrom=A#mw-pages
p990
aV/w/index.php?title=Category:All_disambiguation_pages&pagefrom=OGD&subcatfrom=A&filefrom=A#mw-pages
p991
aV/w/index.php?title=Category:All_disambiguation_pages&pagefrom=Ohio+State+Route+270&subcatfrom=A&filefrom=A#mw-pages
p992
aV/w/index.php?title=Category:All_disambiguation_pages&pagefrom=Oklahoma+bombing&subcatfrom=A&filefrom=A#mw-pages
p993
aV/w/index.php?title=Category:All_disambiguation_pages&pagefrom=Old+Face&subcatfrom=A&filefrom=A#mw-pages
p994
aV/w/index.php?title=Category:All_disambiguation_pages&pagefrom=Old%C5%99ichovice&subcatfrom=A&filefrom=A#mw-pages
p995
aV/w/index.php?title=Category:All_disambiguation_pages&pagefrom=Oliver%27s+Battery+%28disambiguation%29&subcatfrom=A&filefrom=A#mw-pages
p996
aV/w/index.php?title=Category:All_disambiguation_pages&pagefrom=Omar+Abdul+Rahman&subcatfrom=A&filefrom=A#mw-pages
p997
aV/w/index.php?title=Category:All_disambiguation_pages&pagefrom=On+the+Rebound+%28disambiguation%29&subcatfrom=A&filefrom=A#mw-pages
p998
aV/w/index.php?title=Category:All_disambiguation_pages&pagefrom=One+Penny&subcatfrom=A&filefrom=A#mw-pages
p999
aV/w/index.php?title=Category:All_disambiguation_pages&pagefrom=Onpu&subcatfrom=A&filefrom=A#mw-pages
p1000
aV/w/index.php?title=Category:All_disambiguation_pages&pagefrom=Opel+%28disambiguation%29&subcatfrom=A&filefrom=A#mw-pages
p1001
aV/w/index.php?title=Category:All_disambiguation_pages&pagefrom=Operation+Winter&subcatfrom=A&filefrom=A#mw-pages
p1002
aV/w/index.php?title=Category:All_disambiguation_pages&pagefrom=Orange+emperor&subcatfrom=A&filefrom=A#mw-pages
p1003
aV/w/index.php?title=Category:All_disambiguation_pages&pagefrom=Ordinary+Man&subcatfrom=A&filefrom=A#mw-pages
p1004
aV/w/index.php?title=Category:All_disambiguation_pages&pagefrom=Original+Sin+%28disambiguation%29&subcatfrom=A&filefrom=A#mw-pages
p1005
aV/w/index.php?title=Category:All_disambiguation_pages&pagefrom=Ortenburg&subcatfrom=A&filefrom=A#mw-pages
p1006
aV/w/index.php?title=Category:All_disambiguation_pages&pagefrom=Osceola+Township&subcatfrom=A&filefrom=A#mw-pages
p1007
aV/w/index.php?title=Category:All_disambiguation_pages&pagefrom=Osten+%28disambiguation%29&subcatfrom=A&filefrom=A#mw-pages
p1008
aV/w/index.php?title=Category:All_disambiguation_pages&pagefrom=Otley+%28disambiguation%29&subcatfrom=A&filefrom=A#mw-pages
p1009
aV/w/index.php?title=Category:All_disambiguation_pages&pagefrom=Oudesluis&subcatfrom=A&filefrom=A#mw-pages
p1010
aV/w/index.php?title=Category:All_disambiguation_pages&pagefrom=Out+TV&subcatfrom=A&filefrom=A#mw-pages
p1011
aV/w/index.php?title=Category:All_disambiguation_pages&pagefrom=Overholser&subcatfrom=A&filefrom=A#mw-pages
p1012
aV/w/index.php?title=Category:All_disambiguation_pages&pagefrom=OXB&subcatfrom=A&filefrom=A#mw-pages
p1013
aV/w/index.php?title=Category:All_disambiguation_pages&pagefrom=P.+africana&subcatfrom=A&filefrom=A#mw-pages
p1014
aV/w/index.php?title=Category:All_disambiguation_pages&pagefrom=P.+robustus&subcatfrom=A&filefrom=A#mw-pages
p1015
aV/w/index.php?title=Category:All_disambiguation_pages&pagefrom=PA29&subcatfrom=A&filefrom=A#mw-pages
p1016
aV/w/index.php?title=Category:All_disambiguation_pages&pagefrom=Pa%C3%A7ram&subcatfrom=A&filefrom=A#mw-pages
p1017
aV/w/index.php?title=Category:All_disambiguation_pages&pagefrom=Pagoh+%28disambiguation%29&subcatfrom=A&filefrom=A#mw-pages
p1018
aV/w/index.php?title=Category:All_disambiguation_pages&pagefrom=Palacio+de+Congresos&subcatfrom=A&filefrom=A#mw-pages
p1019
aV/w/index.php?title=Category:All_disambiguation_pages&pagefrom=Palkinsky&subcatfrom=A&filefrom=A#mw-pages
p1020
aV/w/index.php?title=Category:All_disambiguation_pages&pagefrom=Pamela+Harris&subcatfrom=A&filefrom=A#mw-pages
p1021
aV/w/index.php?title=Category:All_disambiguation_pages&pagefrom=Panic+in+Paradise&subcatfrom=A&filefrom=A#mw-pages
p1022
aV/w/index.php?title=Category:All_disambiguation_pages&pagefrom=Paper+doll+%28disambiguation%29&subcatfrom=A&filefrom=A#mw-pages
p1023
aV/w/index.php?title=Category:All_disambiguation_pages&pagefrom=Paralympic+medal+table&subcatfrom=A&filefrom=A#mw-pages
p1024
aV/w/index.php?title=Category:All_disambiguation_pages&pagefrom=Parichay&subcatfrom=A&filefrom=A#mw-pages
p1025
aV/w/index.php?title=Category:All_disambiguation_pages&pagefrom=Parker%2C+Charles%0ACharles+Parker&subcatfrom=A&filefrom=A#mw-pages
p1026
aV/w/index.php?title=Category:All_disambiguation_pages&pagefrom=Part+8&subcatfrom=A&filefrom=A#mw-pages
p1027
aV/w/index.php?title=Category:All_disambiguation_pages&pagefrom=Pascale+Petit&subcatfrom=A&filefrom=A#mw-pages
p1028
aV/w/index.php?title=Category:All_disambiguation_pages&pagefrom=Pat+Curran&subcatfrom=A&filefrom=A#mw-pages
p1029
aV/w/index.php?title=Category:All_disambiguation_pages&pagefrom=Patriarch+Alexander&subcatfrom=A&filefrom=A#mw-pages
p1030
aV/w/index.php?title=Category:All_disambiguation_pages&pagefrom=Patriarch+Photios+of+Constantinople&subcatfrom=A&filefrom=A#mw-pages
p1031
aV/w/index.php?title=Category:All_disambiguation_pages&pagefrom=Patrick+Holland&subcatfrom=A&filefrom=A#mw-pages
p1032
aV/w/index.php?title=Category:All_disambiguation_pages&pagefrom=Patterdale+%28disambiguation%29&subcatfrom=A&filefrom=A#mw-pages
p1033
aV/w/index.php?title=Category:All_disambiguation_pages&pagefrom=Paul+Dunn&subcatfrom=A&filefrom=A#mw-pages
p1034
aV/w/index.php?title=Category:All_disambiguation_pages&pagefrom=Paul+Mathiesen&subcatfrom=A&filefrom=A#mw-pages
p1035
aV/w/index.php?title=Category:All_disambiguation_pages&pagefrom=Paul+Victor&subcatfrom=A&filefrom=A#mw-pages
p1036
aV/w/index.php?title=Category:All_disambiguation_pages&pagefrom=Pavlovich&subcatfrom=A&filefrom=A#mw-pages
p1037
aV/w/index.php?title=Category:All_disambiguation_pages&pagefrom=PCDI&subcatfrom=A&filefrom=A#mw-pages
p1038
aV/w/index.php?title=Category:All_disambiguation_pages&pagefrom=PEAP&subcatfrom=A&filefrom=A#mw-pages
p1039
aV/w/index.php?title=Category:All_disambiguation_pages&pagefrom=Pedro+Blanco&subcatfrom=A&filefrom=A#mw-pages
p1040
aV/w/index.php?title=Category:All_disambiguation_pages&pagefrom=Pei%C3%9Fen&subcatfrom=A&filefrom=A#mw-pages
p1041
aV/w/index.php?title=Category:All_disambiguation_pages&pagefrom=Pendragon+%28disambiguation%29&subcatfrom=A&filefrom=A#mw-pages
p1042
aV/w/index.php?title=Category:All_disambiguation_pages&pagefrom=Pentecostal+Collegiate+Institute&subcatfrom=A&filefrom=A#mw-pages
p1043
aV/w/index.php?title=Category:All_disambiguation_pages&pagefrom=Per+se&subcatfrom=A&filefrom=A#mw-pages
p1044
aV/w/index.php?title=Category:All_disambiguation_pages&pagefrom=Peril+at+End+House+%28disambiguation%29&subcatfrom=A&filefrom=A#mw-pages
p1045
aV/w/index.php?title=Category:All_disambiguation_pages&pagefrom=Perses&subcatfrom=A&filefrom=A#mw-pages
p1046
aV/w/index.php?title=Category:All_disambiguation_pages&pagefrom=Pete+Sims&subcatfrom=A&filefrom=A#mw-pages
p1047
aV/w/index.php?title=Category:All_disambiguation_pages&pagefrom=Peter+Fagan+%28disambiguation%29&subcatfrom=A&filefrom=A#mw-pages
p1048
aV/w/index.php?title=Category:All_disambiguation_pages&pagefrom=Peter+Lin&subcatfrom=A&filefrom=A#mw-pages
p1049
aV/w/index.php?title=Category:All_disambiguation_pages&pagefrom=Peter+Sanders&subcatfrom=A&filefrom=A#mw-pages
p1050
aV/w/index.php?title=Category:All_disambiguation_pages&pagefrom=Peterson%2C+Steve%0ASteve+Peterson&subcatfrom=A&filefrom=A#mw-pages
p1051
aV/w/index.php?title=Category:All_disambiguation_pages&pagefrom=Pezzoli&subcatfrom=A&filefrom=A#mw-pages
p1052
aV/w/index.php?title=Category:All_disambiguation_pages&pagefrom=Phasmid&subcatfrom=A&filefrom=A#mw-pages
p1053
aV/w/index.php?title=Category:All_disambiguation_pages&pagefrom=Philip+Crosby&subcatfrom=A&filefrom=A#mw-pages
p1054
aV/w/index.php?title=Category:All_disambiguation_pages&pagefrom=Philipstown&subcatfrom=A&filefrom=A#mw-pages
p1055
aV/w/index.php?title=Category:All_disambiguation_pages&pagefrom=Phph&subcatfrom=A&filefrom=A#mw-pages
p1056
aV/w/index.php?title=Category:All_disambiguation_pages&pagefrom=Piazza+dei+Signori&subcatfrom=A&filefrom=A#mw-pages
p1057
aV/w/index.php?title=Category:All_disambiguation_pages&pagefrom=Piedra+River&subcatfrom=A&filefrom=A#mw-pages
p1058
aV/w/index.php?title=Category:All_disambiguation_pages&pagefrom=Pietro+Fontana&subcatfrom=A&filefrom=A#mw-pages
p1059
aV/w/index.php?title=Category:All_disambiguation_pages&pagefrom=Pilori&subcatfrom=A&filefrom=A#mw-pages
p1060
aV/w/index.php?title=Category:All_disambiguation_pages&pagefrom=Pinewood+School&subcatfrom=A&filefrom=A#mw-pages
p1061
aV/w/index.php?title=Category:All_disambiguation_pages&pagefrom=Piotrkowice&subcatfrom=A&filefrom=A#mw-pages
p1062
aV/w/index.php?title=Category:All_disambiguation_pages&pagefrom=Pismo&subcatfrom=A&filefrom=A#mw-pages
p1063
aV/w/index.php?title=Category:All_disambiguation_pages&pagefrom=PKU+%28disambiguation%29&subcatfrom=A&filefrom=A#mw-pages
p1064
aV/w/index.php?title=Category:All_disambiguation_pages&pagefrom=Plastique+%28disambiguation%29&subcatfrom=A&filefrom=A#mw-pages
p1065
aV/w/index.php?title=Category:All_disambiguation_pages&pagefrom=Pleasant+Grove+Presbyterian+Church&subcatfrom=A&filefrom=A#mw-pages
p1066
aV/w/index.php?title=Category:All_disambiguation_pages&pagefrom=Plover+%28disambiguation%29&subcatfrom=A&filefrom=A#mw-pages
p1067
aV/w/index.php?title=Category:All_disambiguation_pages&pagefrom=PNPase&subcatfrom=A&filefrom=A#mw-pages
p1068
aV/w/index.php?title=Category:All_disambiguation_pages&pagefrom=Poey&subcatfrom=A&filefrom=A#mw-pages
p1069
aV/w/index.php?title=Category:All_disambiguation_pages&pagefrom=Poland+national+field+hockey+team&subcatfrom=A&filefrom=A#mw-pages
p1070
aV/w/index.php?title=Category:All_disambiguation_pages&pagefrom=Politics+of+Ecstasy%2C+The%0AThe+Politics+of+Ecstasy&subcatfrom=A&filefrom=A#mw-pages
p1071
aV/w/index.php?title=Category:All_disambiguation_pages&pagefrom=Pomella&subcatfrom=A&filefrom=A#mw-pages
p1072
aV/w/index.php?title=Category:All_disambiguation_pages&pagefrom=Poochie&subcatfrom=A&filefrom=A#mw-pages
p1073
aV/w/index.php?title=Category:All_disambiguation_pages&pagefrom=Poppyhead&subcatfrom=A&filefrom=A#mw-pages
p1074
aV/w/index.php?title=Category:All_disambiguation_pages&pagefrom=Port+Royal%2C+Nova+Scotia&subcatfrom=A&filefrom=A#mw-pages
p1075
aV/w/index.php?title=Category:All_disambiguation_pages&pagefrom=Posavje+District&subcatfrom=A&filefrom=A#mw-pages
p1076
aV/w/index.php?title=Category:All_disambiguation_pages&pagefrom=Potassium+deficiency&subcatfrom=A&filefrom=A#mw-pages
p1077
aV/w/index.php?title=Category:All_disambiguation_pages&pagefrom=Power+99&subcatfrom=A&filefrom=A#mw-pages
p1078
aV/w/index.php?title=Category:All_disambiguation_pages&pagefrom=PQL+%28disambiguation%29&subcatfrom=A&filefrom=A#mw-pages
p1079
aV/w/index.php?title=Category:All_disambiguation_pages&pagefrom=Praxis&subcatfrom=A&filefrom=A#mw-pages
p1080
aV/w/index.php?title=Category:All_disambiguation_pages&pagefrom=Preparata&subcatfrom=A&filefrom=A#mw-pages
p1081
aV/w/index.php?title=Category:All_disambiguation_pages&pagefrom=Preston+Lake&subcatfrom=A&filefrom=A#mw-pages
p1082
aV/w/index.php?title=Category:All_disambiguation_pages&pagefrom=Prime+Evil&subcatfrom=A&filefrom=A#mw-pages
p1083
aV/w/index.php?title=Category:All_disambiguation_pages&pagefrom=Prince+Xian&subcatfrom=A&filefrom=A#mw-pages
p1084
aV/w/index.php?title=Category:All_disambiguation_pages&pagefrom=Priscilla+Coleman&subcatfrom=A&filefrom=A#mw-pages
p1085
aV/w/index.php?title=Category:All_disambiguation_pages&pagefrom=Prodel&subcatfrom=A&filefrom=A#mw-pages
p1086
aV/w/index.php?title=Category:All_disambiguation_pages&pagefrom=Promises+in+the+Dark&subcatfrom=A&filefrom=A#mw-pages
p1087
aV/w/index.php?title=Category:All_disambiguation_pages&pagefrom=Protuberance&subcatfrom=A&filefrom=A#mw-pages
p1088
aV/w/index.php?title=Category:All_disambiguation_pages&pagefrom=Przyborze&subcatfrom=A&filefrom=A#mw-pages
p1089
aV/w/index.php?title=Category:All_disambiguation_pages&pagefrom=Pterodactyl+%28disambiguation%29&subcatfrom=A&filefrom=A#mw-pages
p1090
aV/w/index.php?title=Category:All_disambiguation_pages&pagefrom=Puerto+Rico+%28disambiguation%29&subcatfrom=A&filefrom=A#mw-pages
p1091
aV/w/index.php?title=Category:All_disambiguation_pages&pagefrom=Punarnava&subcatfrom=A&filefrom=A#mw-pages
p1092
aV/w/index.php?title=Category:All_disambiguation_pages&pagefrom=Purves&subcatfrom=A&filefrom=A#mw-pages
p1093
aV/w/index.php?title=Category:All_disambiguation_pages&pagefrom=PWBA&subcatfrom=A&filefrom=A#mw-pages
p1094
aV/w/index.php?title=Category:All_disambiguation_pages&pagefrom=Q41&subcatfrom=A&filefrom=A#mw-pages
p1095
aV/w/index.php?title=Category:All_disambiguation_pages&pagefrom=Qara+Darreh&subcatfrom=A&filefrom=A#mw-pages
p1096
aV/w/index.php?title=Category:All_disambiguation_pages&pagefrom=Qazyan&subcatfrom=A&filefrom=A#mw-pages
p1097
aV/w/index.php?title=Category:All_disambiguation_pages&pagefrom=Qibao+%28disambiguation%29&subcatfrom=A&filefrom=A#mw-pages
p1098
aV/w/index.php?title=Category:All_disambiguation_pages&pagefrom=QRSS&subcatfrom=A&filefrom=A#mw-pages
p1099
aV/w/index.php?title=Category:All_disambiguation_pages&pagefrom=Qubit+%28disambiguation%29&subcatfrom=A&filefrom=A#mw-pages
p1100
aV/w/index.php?title=Category:All_disambiguation_pages&pagefrom=Queenstown&subcatfrom=A&filefrom=A#mw-pages
p1101
aV/w/index.php?title=Category:All_disambiguation_pages&pagefrom=Quintero+%28disambiguation%29&subcatfrom=A&filefrom=A#mw-pages
p1102
aV/w/index.php?title=Category:All_disambiguation_pages&pagefrom=R.+africana&subcatfrom=A&filefrom=A#mw-pages
p1103
aV/w/index.php?title=Category:All_disambiguation_pages&pagefrom=R116&subcatfrom=A&filefrom=A#mw-pages
p1104
aV/w/index.php?title=Category:All_disambiguation_pages&pagefrom=Rabbittown&subcatfrom=A&filefrom=A#mw-pages
p1105
aV/w/index.php?title=Category:All_disambiguation_pages&pagefrom=Radensko+polje&subcatfrom=A&filefrom=A#mw-pages
p1106
aV/w/index.php?title=Category:All_disambiguation_pages&pagefrom=Radu%2C+Iran&subcatfrom=A&filefrom=A#mw-pages
p1107
aV/w/index.php?title=Category:All_disambiguation_pages&pagefrom=Rahab+%28disambiguation%29&subcatfrom=A&filefrom=A#mw-pages
p1108
aV/w/index.php?title=Category:All_disambiguation_pages&pagefrom=Rainy+Lake+%28disambiguation%29&subcatfrom=A&filefrom=A#mw-pages
p1109
aV/w/index.php?title=Category:All_disambiguation_pages&pagefrom=Ralli&subcatfrom=A&filefrom=A#mw-pages
p1110
aV/w/index.php?title=Category:All_disambiguation_pages&pagefrom=Ramban&subcatfrom=A&filefrom=A#mw-pages
p1111
aV/w/index.php?title=Category:All_disambiguation_pages&pagefrom=Randal&subcatfrom=A&filefrom=A#mw-pages
p1112
aV/w/index.php?title=Category:All_disambiguation_pages&pagefrom=Ranzi&subcatfrom=A&filefrom=A#mw-pages
p1113
aV/w/index.php?title=Category:All_disambiguation_pages&pagefrom=Rastorguyev&subcatfrom=A&filefrom=A#mw-pages
p1114
aV/w/index.php?title=Category:All_disambiguation_pages&pagefrom=Ravang&subcatfrom=A&filefrom=A#mw-pages
p1115
aV/w/index.php?title=Category:All_disambiguation_pages&pagefrom=Ray+Taylor&subcatfrom=A&filefrom=A#mw-pages
p1116
aV/w/index.php?title=Category:All_disambiguation_pages&pagefrom=RBG&subcatfrom=A&filefrom=A#mw-pages
p1117
aV/w/index.php?title=Category:All_disambiguation_pages&pagefrom=Reagan+High+School&subcatfrom=A&filefrom=A#mw-pages
p1118
aV/w/index.php?title=Category:All_disambiguation_pages&pagefrom=Receptacle&subcatfrom=A&filefrom=A#mw-pages
p1119
aV/w/index.php?title=Category:All_disambiguation_pages&pagefrom=Red+Deer+%28disambiguation%29&subcatfrom=A&filefrom=A#mw-pages
p1120
aV/w/index.php?title=Category:All_disambiguation_pages&pagefrom=Red+socks&subcatfrom=A&filefrom=A#mw-pages
p1121
aV/w/index.php?title=Category:All_disambiguation_pages&pagefrom=Redvale&subcatfrom=A&filefrom=A#mw-pages
p1122
aV/w/index.php?title=Category:All_disambiguation_pages&pagefrom=Reggie+White+%28disambiguation%29&subcatfrom=A&filefrom=A#mw-pages
p1123
aV/w/index.php?title=Category:All_disambiguation_pages&pagefrom=Reichenb%C3%A4chle&subcatfrom=A&filefrom=A#mw-pages
p1124
aV/w/index.php?title=Category:All_disambiguation_pages&pagefrom=Relli&subcatfrom=A&filefrom=A#mw-pages
p1125
aV/w/index.php?title=Category:All_disambiguation_pages&pagefrom=Renison&subcatfrom=A&filefrom=A#mw-pages
p1126
aV/w/index.php?title=Category:All_disambiguation_pages&pagefrom=Re%C5%9Fadiye+%28disambiguation%29&subcatfrom=A&filefrom=A#mw-pages
p1127
aV/w/index.php?title=Category:All_disambiguation_pages&pagefrom=Reticule&subcatfrom=A&filefrom=A#mw-pages
p1128
aV/w/index.php?title=Category:All_disambiguation_pages&pagefrom=Revolutionary+Communist+League&subcatfrom=A&filefrom=A#mw-pages
p1129
aV/w/index.php?title=Category:All_disambiguation_pages&pagefrom=Rhaeticus&subcatfrom=A&filefrom=A#mw-pages
p1130
aV/w/index.php?title=Category:All_disambiguation_pages&pagefrom=Rib+Mountain%2C+Wisconsin&subcatfrom=A&filefrom=A#mw-pages
p1131
aV/w/index.php?title=Category:All_disambiguation_pages&pagefrom=Richard+Beals&subcatfrom=A&filefrom=A#mw-pages
p1132
aV/w/index.php?title=Category:All_disambiguation_pages&pagefrom=Richard+Drew&subcatfrom=A&filefrom=A#mw-pages
p1133
aV/w/index.php?title=Category:All_disambiguation_pages&pagefrom=Richard+Hunt&subcatfrom=A&filefrom=A#mw-pages
p1134
aV/w/index.php?title=Category:All_disambiguation_pages&pagefrom=Richard+O%27Neill&subcatfrom=A&filefrom=A#mw-pages
p1135
aV/w/index.php?title=Category:All_disambiguation_pages&pagefrom=Richard+Terry&subcatfrom=A&filefrom=A#mw-pages
p1136
aV/w/index.php?title=Category:All_disambiguation_pages&pagefrom=Richmond+Hill+High+School&subcatfrom=A&filefrom=A#mw-pages
p1137
aV/w/index.php?title=Category:All_disambiguation_pages&pagefrom=Rieber&subcatfrom=A&filefrom=A#mw-pages
p1138
aV/w/index.php?title=Category:All_disambiguation_pages&pagefrom=Rimini+%28disambiguation%29&subcatfrom=A&filefrom=A#mw-pages
p1139
aV/w/index.php?title=Category:All_disambiguation_pages&pagefrom=Ripley+County&subcatfrom=A&filefrom=A#mw-pages
p1140
aV/w/index.php?title=Category:All_disambiguation_pages&pagefrom=River+Glen&subcatfrom=A&filefrom=A#mw-pages
p1141
aV/w/index.php?title=Category:All_disambiguation_pages&pagefrom=Rivi%C3%A8re+Noire&subcatfrom=A&filefrom=A#mw-pages
p1142
aV/w/index.php?title=Category:All_disambiguation_pages&pagefrom=Road+Trip&subcatfrom=A&filefrom=A#mw-pages
p1143
aV/w/index.php?title=Category:All_disambiguation_pages&pagefrom=Robert+Bateman&subcatfrom=A&filefrom=A#mw-pages
p1144
aV/w/index.php?title=Category:All_disambiguation_pages&pagefrom=Robert+Coughlin&subcatfrom=A&filefrom=A#mw-pages
p1145
aV/w/index.php?title=Category:All_disambiguation_pages&pagefrom=Robert+Frazier&subcatfrom=A&filefrom=A#mw-pages
p1146
aV/w/index.php?title=Category:All_disambiguation_pages&pagefrom=Robert+Innes&subcatfrom=A&filefrom=A#mw-pages
p1147
aV/w/index.php?title=Category:All_disambiguation_pages&pagefrom=Robert+McCartney&subcatfrom=A&filefrom=A#mw-pages
p1148
aV/w/index.php?title=Category:All_disambiguation_pages&pagefrom=Robert+Poston&subcatfrom=A&filefrom=A#mw-pages
p1149
aV/w/index.php?title=Category:All_disambiguation_pages&pagefrom=Robert+Sykes&subcatfrom=A&filefrom=A#mw-pages
p1150
aV/w/index.php?title=Category:All_disambiguation_pages&pagefrom=Roberts+Stadium&subcatfrom=A&filefrom=A#mw-pages
p1151
aV/w/index.php?title=Category:All_disambiguation_pages&pagefrom=Rochelle+Park&subcatfrom=A&filefrom=A#mw-pages
p1152
aV/w/index.php?title=Category:All_disambiguation_pages&pagefrom=Rockne+%28disambiguation%29&subcatfrom=A&filefrom=A#mw-pages
p1153
aV/w/index.php?title=Category:All_disambiguation_pages&pagefrom=Rodrigo+Pimentel&subcatfrom=A&filefrom=A#mw-pages
p1154
aV/w/index.php?title=Category:All_disambiguation_pages&pagefrom=Roger+Wagner+%28disambiguation%29&subcatfrom=A&filefrom=A#mw-pages
p1155
aV/w/index.php?title=Category:All_disambiguation_pages&pagefrom=Rolla&subcatfrom=A&filefrom=A#mw-pages
p1156
aV/w/index.php?title=Category:All_disambiguation_pages&pagefrom=Romblon+%28disambiguation%29&subcatfrom=A&filefrom=A#mw-pages
p1157
aV/w/index.php?title=Category:All_disambiguation_pages&pagefrom=Ronald+Robertson&subcatfrom=A&filefrom=A#mw-pages
p1158
aV/w/index.php?title=Category:All_disambiguation_pages&pagefrom=Roquefort+%28disambiguation%29&subcatfrom=A&filefrom=A#mw-pages
p1159
aV/w/index.php?title=Category:All_disambiguation_pages&pagefrom=Rosendahl+%28disambiguation%29&subcatfrom=A&filefrom=A#mw-pages
p1160
aV/w/index.php?title=Category:All_disambiguation_pages&pagefrom=Rossi%2C+Marco%0AMarco+Rossi&subcatfrom=A&filefrom=A#mw-pages
p1161
aV/w/index.php?title=Category:All_disambiguation_pages&pagefrom=Rough-skinned+frog&subcatfrom=A&filefrom=A#mw-pages
p1162
aV/w/index.php?title=Category:All_disambiguation_pages&pagefrom=R%C3%B3w&subcatfrom=A&filefrom=A#mw-pages
p1163
aV/w/index.php?title=Category:All_disambiguation_pages&pagefrom=Royal+College+of+Physicians+and+Surgeons&subcatfrom=A&filefrom=A#mw-pages
p1164
aV/w/index.php?title=Category:All_disambiguation_pages&pagefrom=RPLS&subcatfrom=A&filefrom=A#mw-pages
p1165
aV/w/index.php?title=Category:All_disambiguation_pages&pagefrom=Rub%C3%A9n+Gonz%C3%A1lez&subcatfrom=A&filefrom=A#mw-pages
p1166
aV/w/index.php?title=Category:All_disambiguation_pages&pagefrom=Ruff+%28disambiguation%29&subcatfrom=A&filefrom=A#mw-pages
p1167
aV/w/index.php?title=Category:All_disambiguation_pages&pagefrom=Rumor+%28disambiguation%29&subcatfrom=A&filefrom=A#mw-pages
p1168
aV/w/index.php?title=Category:All_disambiguation_pages&pagefrom=Rushen+Castle&subcatfrom=A&filefrom=A#mw-pages
p1169
aV/w/index.php?title=Category:All_disambiguation_pages&pagefrom=Russian+Vietnamese&subcatfrom=A&filefrom=A#mw-pages
p1170
aV/w/index.php?title=Category:All_disambiguation_pages&pagefrom=RVM%0ARVM&subcatfrom=A&filefrom=A#mw-pages
p1171
aV/w/index.php?title=Category:All_disambiguation_pages&pagefrom=Rye+House&subcatfrom=A&filefrom=A#mw-pages
p1172
aV/w/index.php?title=Category:All_disambiguation_pages&pagefrom=S.+H.+Dudley&subcatfrom=A&filefrom=A#mw-pages
p1173
aV/w/index.php?title=Category:All_disambiguation_pages&pagefrom=S72&subcatfrom=A&filefrom=A#mw-pages
p1174
aV/w/index.php?title=Category:All_disambiguation_pages&pagefrom=Sabha&subcatfrom=A&filefrom=A#mw-pages
p1175
aV/w/index.php?title=Category:All_disambiguation_pages&pagefrom=Sadae+%28disambiguation%29&subcatfrom=A&filefrom=A#mw-pages
p1176
aV/w/index.php?title=Category:All_disambiguation_pages&pagefrom=Sagal+Twins&subcatfrom=A&filefrom=A#mw-pages
p1177
aV/w/index.php?title=Category:All_disambiguation_pages&pagefrom=Saint+Agnes+High+School&subcatfrom=A&filefrom=A#mw-pages
p1178
aV/w/index.php?title=Category:All_disambiguation_pages&pagefrom=Saint+Leo+the+Great+School&subcatfrom=A&filefrom=A#mw-pages
p1179
aV/w/index.php?title=Category:All_disambiguation_pages&pagefrom=Saint-Christol&subcatfrom=A&filefrom=A#mw-pages
p1180
aV/w/index.php?title=Category:All_disambiguation_pages&pagefrom=Saint-Val%C3%A9rien&subcatfrom=A&filefrom=A#mw-pages
p1181
aV/w/index.php?title=Category:All_disambiguation_pages&pagefrom=Salahi&subcatfrom=A&filefrom=A#mw-pages
p1182
aV/w/index.php?title=Category:All_disambiguation_pages&pagefrom=Salisbury+by-election&subcatfrom=A&filefrom=A#mw-pages
p1183
aV/w/index.php?title=Category:All_disambiguation_pages&pagefrom=Salvador+Garc%C3%ADa&subcatfrom=A&filefrom=A#mw-pages
p1184
aV/w/index.php?title=Category:All_disambiguation_pages&pagefrom=Samantha+Robinson&subcatfrom=A&filefrom=A#mw-pages
p1185
aV/w/index.php?title=Category:All_disambiguation_pages&pagefrom=Samuel+Andrews&subcatfrom=A&filefrom=A#mw-pages
p1186
aV/w/index.php?title=Category:All_disambiguation_pages&pagefrom=Samuel+Nicholson+%28disambiguation%29&subcatfrom=A&filefrom=A#mw-pages
p1187
aV/w/index.php?title=Category:All_disambiguation_pages&pagefrom=San+Diego+wildfires&subcatfrom=A&filefrom=A#mw-pages
p1188
aV/w/index.php?title=Category:All_disambiguation_pages&pagefrom=San+Pedro+Municipality&subcatfrom=A&filefrom=A#mw-pages
p1189
aV/w/index.php?title=Category:All_disambiguation_pages&pagefrom=Sandboxing&subcatfrom=A&filefrom=A#mw-pages
p1190
aV/w/index.php?title=Category:All_disambiguation_pages&pagefrom=Sang+Kar&subcatfrom=A&filefrom=A#mw-pages
p1191
aV/w/index.php?title=Category:All_disambiguation_pages&pagefrom=Sansai+%28disambiguation%29&subcatfrom=A&filefrom=A#mw-pages
p1192
aV/w/index.php?title=Category:All_disambiguation_pages&pagefrom=Santameri&subcatfrom=A&filefrom=A#mw-pages
p1193
aV/w/index.php?title=Category:All_disambiguation_pages&pagefrom=Sapara&subcatfrom=A&filefrom=A#mw-pages
p1194
aV/w/index.php?title=Category:All_disambiguation_pages&pagefrom=Sarah+Edmundson&subcatfrom=A&filefrom=A#mw-pages
p1195
aV/w/index.php?title=Category:All_disambiguation_pages&pagefrom=Sarchehan&subcatfrom=A&filefrom=A#mw-pages
p1196
aV/w/index.php?title=Category:All_disambiguation_pages&pagefrom=Sarp+%28disambiguation%29&subcatfrom=A&filefrom=A#mw-pages
p1197
aV/w/index.php?title=Category:All_disambiguation_pages&pagefrom=Sathiyamangalam&subcatfrom=A&filefrom=A#mw-pages
p1198
aV/w/index.php?title=Category:All_disambiguation_pages&pagefrom=Savage&subcatfrom=A&filefrom=A#mw-pages
p1199
aV/w/index.php?title=Category:All_disambiguation_pages&pagefrom=Say+Less&subcatfrom=A&filefrom=A#mw-pages
p1200
aV/w/index.php?title=Category:All_disambiguation_pages&pagefrom=Scandia+Township&subcatfrom=A&filefrom=A#mw-pages
p1201
aV/w/index.php?title=Category:All_disambiguation_pages&pagefrom=Schedule+%28disambiguation%29&subcatfrom=A&filefrom=A#mw-pages
p1202
aV/w/index.php?title=Category:All_disambiguation_pages&pagefrom=Sch%C3%B6nemann&subcatfrom=A&filefrom=A#mw-pages
p1203
aV/w/index.php?title=Category:All_disambiguation_pages&pagefrom=Schwarzsee+%28disambiguation%29&subcatfrom=A&filefrom=A#mw-pages
p1204
aV/w/index.php?title=Category:All_disambiguation_pages&pagefrom=Scotch+Bush%2C+Ontario&subcatfrom=A&filefrom=A#mw-pages
p1205
aV/w/index.php?title=Category:All_disambiguation_pages&pagefrom=Scott+Ross&subcatfrom=A&filefrom=A#mw-pages
p1206
aV/w/index.php?title=Category:All_disambiguation_pages&pagefrom=Screwball+%28disambiguation%29&subcatfrom=A&filefrom=A#mw-pages
p1207
aV/w/index.php?title=Category:All_disambiguation_pages&pagefrom=Sea+land&subcatfrom=A&filefrom=A#mw-pages
p1208
aV/w/index.php?title=Category:All_disambiguation_pages&pagefrom=Sean+Maguire+%28disambiguation%29&subcatfrom=A&filefrom=A#mw-pages
p1209
aV/w/index.php?title=Category:All_disambiguation_pages&pagefrom=Secant&subcatfrom=A&filefrom=A#mw-pages
p1210
aV/w/index.php?title=Category:All_disambiguation_pages&pagefrom=Secretary+of+Government+of+Puerto+Rico&subcatfrom=A&filefrom=A#mw-pages
p1211
aV/w/index.php?title=Category:All_disambiguation_pages&pagefrom=Seethakoka+Chiluka&subcatfrom=A&filefrom=A#mw-pages
p1212
aV/w/index.php?title=Category:All_disambiguation_pages&pagefrom=Selby+%28disambiguation%29&subcatfrom=A&filefrom=A#mw-pages
p1213
aV/w/index.php?title=Category:All_disambiguation_pages&pagefrom=Semei&subcatfrom=A&filefrom=A#mw-pages
p1214
aV/w/index.php?title=Category:All_disambiguation_pages&pagefrom=Sennett&subcatfrom=A&filefrom=A#mw-pages
p1215
aV/w/index.php?title=Category:All_disambiguation_pages&pagefrom=Serb+List&subcatfrom=A&filefrom=A#mw-pages
p1216
aV/w/index.php?title=Category:All_disambiguation_pages&pagefrom=Sergey+Volkov&subcatfrom=A&filefrom=A#mw-pages
p1217
aV/w/index.php?title=Category:All_disambiguation_pages&pagefrom=Sery&subcatfrom=A&filefrom=A#mw-pages
p1218
aV/w/index.php?title=Category:All_disambiguation_pages&pagefrom=Seven+Stones&subcatfrom=A&filefrom=A#mw-pages
p1219
aV/w/index.php?title=Category:All_disambiguation_pages&pagefrom=Seymchan+River&subcatfrom=A&filefrom=A#mw-pages
p1220
aV/w/index.php?title=Category:All_disambiguation_pages&pagefrom=Shabad&subcatfrom=A&filefrom=A#mw-pages
p1221
aV/w/index.php?title=Category:All_disambiguation_pages&pagefrom=Shah+Tut&subcatfrom=A&filefrom=A#mw-pages
p1222
aV/w/index.php?title=Category:All_disambiguation_pages&pagefrom=Shakti+Singh&subcatfrom=A&filefrom=A#mw-pages
p1223
aV/w/index.php?title=Category:All_disambiguation_pages&pagefrom=Shangsi&subcatfrom=A&filefrom=A#mw-pages
p1224
aV/w/index.php?title=Category:All_disambiguation_pages&pagefrom=Sharpnose+stingray&subcatfrom=A&filefrom=A#mw-pages
p1225
aV/w/index.php?title=Category:All_disambiguation_pages&pagefrom=Sheba+%28disambiguation%29&subcatfrom=A&filefrom=A#mw-pages
p1226
aV/w/index.php?title=Category:All_disambiguation_pages&pagefrom=Shen+Jie&subcatfrom=A&filefrom=A#mw-pages
p1227
aV/w/index.php?title=Category:All_disambiguation_pages&pagefrom=Sheykh+Bazar&subcatfrom=A&filefrom=A#mw-pages
p1228
aV/w/index.php?title=Category:All_disambiguation_pages&pagefrom=Shimoda+Station+%28disambiguation%29&subcatfrom=A&filefrom=A#mw-pages
p1229
aV/w/index.php?title=Category:All_disambiguation_pages&pagefrom=Shire+of+Tambo&subcatfrom=A&filefrom=A#mw-pages
p1230
aV/w/index.php?title=Category:All_disambiguation_pages&pagefrom=Shoeshine+boy+%28disambiguation%29&subcatfrom=A&filefrom=A#mw-pages
p1231
aV/w/index.php?title=Category:All_disambiguation_pages&pagefrom=Should+I&subcatfrom=A&filefrom=A#mw-pages
p1232
aV/w/index.php?title=Category:All_disambiguation_pages&pagefrom=Shumiatcher&subcatfrom=A&filefrom=A#mw-pages
p1233
aV/w/index.php?title=Category:All_disambiguation_pages&pagefrom=Siaqul&subcatfrom=A&filefrom=A#mw-pages
p1234
aV/w/index.php?title=Category:All_disambiguation_pages&pagefrom=Sidney&subcatfrom=A&filefrom=A#mw-pages
p1235
aV/w/index.php?title=Category:All_disambiguation_pages&pagefrom=Siege+of+Tarragona&subcatfrom=A&filefrom=A#mw-pages
p1236
aV/w/index.php?title=Category:All_disambiguation_pages&pagefrom=Signs+of+the+Time+%28disambiguation%29&subcatfrom=A&filefrom=A#mw-pages
p1237
aV/w/index.php?title=Category:All_disambiguation_pages&pagefrom=Silly+People&subcatfrom=A&filefrom=A#mw-pages
p1238
aV/w/index.php?title=Category:All_disambiguation_pages&pagefrom=Simard&subcatfrom=A&filefrom=A#mw-pages
p1239
aV/w/index.php?title=Category:All_disambiguation_pages&pagefrom=Simon+Yates&subcatfrom=A&filefrom=A#mw-pages
p1240
aV/w/index.php?title=Category:All_disambiguation_pages&pagefrom=Singapore+Armed+Forces+Long+Service+and+Good+Conduct+Medal&subcatfrom=A&filefrom=A#mw-pages
p1241
aV/w/index.php?title=Category:All_disambiguation_pages&pagefrom=Siping&subcatfrom=A&filefrom=A#mw-pages
p1242
aV/w/index.php?title=Category:All_disambiguation_pages&pagefrom=Sister+Kate&subcatfrom=A&filefrom=A#mw-pages
p1243
aV/w/index.php?title=Category:All_disambiguation_pages&pagefrom=Sizwe+%28disambiguation%29&subcatfrom=A&filefrom=A#mw-pages
p1244
aV/w/index.php?title=Category:All_disambiguation_pages&pagefrom=Skindiving&subcatfrom=A&filefrom=A#mw-pages
p1245
aV/w/index.php?title=Category:All_disambiguation_pages&pagefrom=Skycar&subcatfrom=A&filefrom=A#mw-pages
p1246
aV/w/index.php?title=Category:All_disambiguation_pages&pagefrom=Slavica&subcatfrom=A&filefrom=A#mw-pages
p1247
aV/w/index.php?title=Category:All_disambiguation_pages&pagefrom=SLLP&subcatfrom=A&filefrom=A#mw-pages
p1248
aV/w/index.php?title=Category:All_disambiguation_pages&pagefrom=Small+Heath+%28disambiguation%29&subcatfrom=A&filefrom=A#mw-pages
p1249
aV/w/index.php?title=Category:All_disambiguation_pages&pagefrom=Smith+v.+United+States&subcatfrom=A&filefrom=A#mw-pages
p1250
aV/w/index.php?title=Category:All_disambiguation_pages&pagefrom=SMTH&subcatfrom=A&filefrom=A#mw-pages
p1251
aV/w/index.php?title=Category:All_disambiguation_pages&pagefrom=Snow+Cat&subcatfrom=A&filefrom=A#mw-pages
p1252
aV/w/index.php?title=Category:All_disambiguation_pages&pagefrom=Sobhuza&subcatfrom=A&filefrom=A#mw-pages
p1253
aV/w/index.php?title=Category:All_disambiguation_pages&pagefrom=Soe+Win&subcatfrom=A&filefrom=A#mw-pages
p1254
aV/w/index.php?title=Category:All_disambiguation_pages&pagefrom=Solar+Plexus&subcatfrom=A&filefrom=A#mw-pages
p1255
aV/w/index.php?title=Category:All_disambiguation_pages&pagefrom=Solvent+%28disambiguation%29&subcatfrom=A&filefrom=A#mw-pages
p1256
aV/w/index.php?title=Category:All_disambiguation_pages&pagefrom=Son+de+Mar&subcatfrom=A&filefrom=A#mw-pages
p1257
aV/w/index.php?title=Category:All_disambiguation_pages&pagefrom=Sonson&subcatfrom=A&filefrom=A#mw-pages
p1258
aV/w/index.php?title=Category:All_disambiguation_pages&pagefrom=Sortie+%28disambiguation%29&subcatfrom=A&filefrom=A#mw-pages
p1259
aV/w/index.php?title=Category:All_disambiguation_pages&pagefrom=Souse&subcatfrom=A&filefrom=A#mw-pages
p1260
aV/w/index.php?title=Category:All_disambiguation_pages&pagefrom=South+Russia&subcatfrom=A&filefrom=A#mw-pages
p1261
aV/w/index.php?title=Category:All_disambiguation_pages&pagefrom=Southey&subcatfrom=A&filefrom=A#mw-pages
p1262
aV/w/index.php?title=Category:All_disambiguation_pages&pagefrom=Spaccanapoli&subcatfrom=A&filefrom=A#mw-pages
p1263
aV/w/index.php?title=Category:All_disambiguation_pages&pagefrom=Sparging&subcatfrom=A&filefrom=A#mw-pages
p1264
aV/w/index.php?title=Category:All_disambiguation_pages&pagefrom=Specific+resistance&subcatfrom=A&filefrom=A#mw-pages
p1265
aV/w/index.php?title=Category:All_disambiguation_pages&pagefrom=Spice+%28disambiguation%29&subcatfrom=A&filefrom=A#mw-pages
p1266
aV/w/index.php?title=Category:All_disambiguation_pages&pagefrom=Splatt&subcatfrom=A&filefrom=A#mw-pages
p1267
aV/w/index.php?title=Category:All_disambiguation_pages&pagefrom=Spreader&subcatfrom=A&filefrom=A#mw-pages
p1268
aV/w/index.php?title=Category:All_disambiguation_pages&pagefrom=Spruce+Pine&subcatfrom=A&filefrom=A#mw-pages
p1269
aV/w/index.php?title=Category:All_disambiguation_pages&pagefrom=sr388%0ASR+388&subcatfrom=A&filefrom=A#mw-pages
p1270
aV/w/index.php?title=Category:All_disambiguation_pages&pagefrom=SSIM+%28disambiguation%29&subcatfrom=A&filefrom=A#mw-pages
p1271
aV/w/index.php?title=Category:All_disambiguation_pages&pagefrom=St+John%27s+wort+%28disambiguation%29&subcatfrom=A&filefrom=A#mw-pages
p1272
aV/w/index.php?title=Category:All_disambiguation_pages&pagefrom=St.+Clare%27s+Convent&subcatfrom=A&filefrom=A#mw-pages
p1273
aV/w/index.php?title=Category:All_disambiguation_pages&pagefrom=St.+Lawrence+High+School&subcatfrom=A&filefrom=A#mw-pages
p1274
aV/w/index.php?title=Category:All_disambiguation_pages&pagefrom=St.+Peter%27s+Lutheran+Church&subcatfrom=A&filefrom=A#mw-pages
p1275
aV/w/index.php?title=Category:All_disambiguation_pages&pagefrom=Stage+Door+Theater&subcatfrom=A&filefrom=A#mw-pages
p1276
aV/w/index.php?title=Category:All_disambiguation_pages&pagefrom=Standing+Still&subcatfrom=A&filefrom=A#mw-pages
p1277
aV/w/index.php?title=Category:All_disambiguation_pages&pagefrom=Star+Is+Born%2C+A%0AA+Star+Is+Born&subcatfrom=A&filefrom=A#mw-pages
p1278
aV/w/index.php?title=Category:All_disambiguation_pages&pagefrom=Start+a+Fire&subcatfrom=A&filefrom=A#mw-pages
p1279
aV/w/index.php?title=Category:All_disambiguation_pages&pagefrom=Statue+of+Alexander+von+Humboldt&subcatfrom=A&filefrom=A#mw-pages
p1280
aV/w/index.php?title=Category:All_disambiguation_pages&pagefrom=Steering+system&subcatfrom=A&filefrom=A#mw-pages
p1281
aV/w/index.php?title=Category:All_disambiguation_pages&pagefrom=St%C3%A9phane+Breton&subcatfrom=A&filefrom=A#mw-pages
p1282
aV/w/index.php?title=Category:All_disambiguation_pages&pagefrom=Stephen+Merrill&subcatfrom=A&filefrom=A#mw-pages
p1283
aV/w/index.php?title=Category:All_disambiguation_pages&pagefrom=Steve+Burke&subcatfrom=A&filefrom=A#mw-pages
p1284
aV/w/index.php?title=Category:All_disambiguation_pages&pagefrom=Steven+Croft&subcatfrom=A&filefrom=A#mw-pages
p1285
aV/w/index.php?title=Category:All_disambiguation_pages&pagefrom=Stift+%28disambiguation%29&subcatfrom=A&filefrom=A#mw-pages
p1286
aV/w/index.php?title=Category:All_disambiguation_pages&pagefrom=Stockman&subcatfrom=A&filefrom=A#mw-pages
p1287
aV/w/index.php?title=Category:All_disambiguation_pages&pagefrom=Stonor+%28disambiguation%29&subcatfrom=A&filefrom=A#mw-pages
p1288
aV/w/index.php?title=Category:All_disambiguation_pages&pagefrom=Stradone&subcatfrom=A&filefrom=A#mw-pages
p1289
aV/w/index.php?title=Category:All_disambiguation_pages&pagefrom=Stratus&subcatfrom=A&filefrom=A#mw-pages
p1290
aV/w/index.php?title=Category:All_disambiguation_pages&pagefrom=String+Quartet+No.+7&subcatfrom=A&filefrom=A#mw-pages
p1291
aV/w/index.php?title=Category:All_disambiguation_pages&pagefrom=Strzygi&subcatfrom=A&filefrom=A#mw-pages
p1292
aV/w/index.php?title=Category:All_disambiguation_pages&pagefrom=Stuoraj%C3%A1vri&subcatfrom=A&filefrom=A#mw-pages
p1293
aV/w/index.php?title=Category:All_disambiguation_pages&pagefrom=Subshell&subcatfrom=A&filefrom=A#mw-pages
p1294
aV/w/index.php?title=Category:All_disambiguation_pages&pagefrom=Suffren+%28disambiguation%29&subcatfrom=A&filefrom=A#mw-pages
p1295
aV/w/index.php?title=Category:All_disambiguation_pages&pagefrom=Sul%C4%99cin+%28disambiguation%29&subcatfrom=A&filefrom=A#mw-pages
p1296
aV/w/index.php?title=Category:All_disambiguation_pages&pagefrom=Summer+of+the+Seventeenth+Doll+%28disambiguation%29&subcatfrom=A&filefrom=A#mw-pages
p1297
aV/w/index.php?title=Category:All_disambiguation_pages&pagefrom=Suncook&subcatfrom=A&filefrom=A#mw-pages
p1298
aV/w/index.php?title=Category:All_disambiguation_pages&pagefrom=Sunshine+Special+%28disambiguation%29&subcatfrom=A&filefrom=A#mw-pages
p1299
aV/w/index.php?title=Category:All_disambiguation_pages&pagefrom=Superior+Township&subcatfrom=A&filefrom=A#mw-pages
p1300
aV/w/index.php?title=Category:All_disambiguation_pages&pagefrom=Surf&subcatfrom=A&filefrom=A#mw-pages
p1301
aV/w/index.php?title=Category:All_disambiguation_pages&pagefrom=Susan+Weld&subcatfrom=A&filefrom=A#mw-pages
p1302
aV/w/index.php?title=Category:All_disambiguation_pages&pagefrom=SVB&subcatfrom=A&filefrom=A#mw-pages
p1303
aV/w/index.php?title=Category:All_disambiguation_pages&pagefrom=Swamp+fever&subcatfrom=A&filefrom=A#mw-pages
p1304
aV/w/index.php?title=Category:All_disambiguation_pages&pagefrom=Sweet+Rush&subcatfrom=A&filefrom=A#mw-pages
p1305
aV/w/index.php?title=Category:All_disambiguation_pages&pagefrom=Swn&subcatfrom=A&filefrom=A#mw-pages
p1306
aV/w/index.php?title=Category:All_disambiguation_pages&pagefrom=Symmes+Township%2C+Ohio&subcatfrom=A&filefrom=A#mw-pages
p1307
aV/w/index.php?title=Category:All_disambiguation_pages&pagefrom=Syrian+Revolution&subcatfrom=A&filefrom=A#mw-pages
p1308
aV/w/index.php?title=Category:All_disambiguation_pages&pagefrom=T.+C.+Hope&subcatfrom=A&filefrom=A#mw-pages
p1309
aV/w/index.php?title=Category:All_disambiguation_pages&pagefrom=T71&subcatfrom=A&filefrom=A#mw-pages
p1310
aV/w/index.php?title=Category:All_disambiguation_pages&pagefrom=Tado+language&subcatfrom=A&filefrom=A#mw-pages
p1311
aV/w/index.php?title=Category:All_disambiguation_pages&pagefrom=Taina&subcatfrom=A&filefrom=A#mw-pages
p1312
aV/w/index.php?title=Category:All_disambiguation_pages&pagefrom=Take+Heart&subcatfrom=A&filefrom=A#mw-pages
p1313
aV/w/index.php?title=Category:All_disambiguation_pages&pagefrom=Tales+DS&subcatfrom=A&filefrom=A#mw-pages
p1314
aV/w/index.php?title=Category:All_disambiguation_pages&pagefrom=Tamarack+%28disambiguation%29&subcatfrom=A&filefrom=A#mw-pages
p1315
aV/w/index.php?title=Category:All_disambiguation_pages&pagefrom=Tanfield&subcatfrom=A&filefrom=A#mw-pages
p1316
aV/w/index.php?title=Category:All_disambiguation_pages&pagefrom=Tanzhou&subcatfrom=A&filefrom=A#mw-pages
p1317
aV/w/index.php?title=Category:All_disambiguation_pages&pagefrom=Taree+%28disambiguation%29&subcatfrom=A&filefrom=A#mw-pages
p1318
aV/w/index.php?title=Category:All_disambiguation_pages&pagefrom=Tashkan&subcatfrom=A&filefrom=A#mw-pages
p1319
aV/w/index.php?title=Category:All_disambiguation_pages&pagefrom=Tauro&subcatfrom=A&filefrom=A#mw-pages
p1320
aV/w/index.php?title=Category:All_disambiguation_pages&pagefrom=Tazi%0ATazi&subcatfrom=A&filefrom=A#mw-pages
p1321
aV/w/index.php?title=Category:All_disambiguation_pages&pagefrom=Team+UK&subcatfrom=A&filefrom=A#mw-pages
p1322
aV/w/index.php?title=Category:All_disambiguation_pages&pagefrom=Tedesco&subcatfrom=A&filefrom=A#mw-pages
p1323
aV/w/index.php?title=Category:All_disambiguation_pages&pagefrom=Telenovel&subcatfrom=A&filefrom=A#mw-pages
p1324
aV/w/index.php?title=Category:All_disambiguation_pages&pagefrom=Temple+of+Diana&subcatfrom=A&filefrom=A#mw-pages
p1325
aV/w/index.php?title=Category:All_disambiguation_pages&pagefrom=Tennet&subcatfrom=A&filefrom=A#mw-pages
p1326
aV/w/index.php?title=Category:All_disambiguation_pages&pagefrom=Terminator&subcatfrom=A&filefrom=A#mw-pages
p1327
aV/w/index.php?title=Category:All_disambiguation_pages&pagefrom=Terry+Sullivan&subcatfrom=A&filefrom=A#mw-pages
p1328
aV/w/index.php?title=Category:All_disambiguation_pages&pagefrom=Texarkana+%28disambiguation%29&subcatfrom=A&filefrom=A#mw-pages
p1329
aV/w/index.php?title=Category:All_disambiguation_pages&pagefrom=Thalia&subcatfrom=A&filefrom=A#mw-pages
p1330
aV/w/index.php?title=Category:All_disambiguation_pages&pagefrom=The+Champions+%28disambiguation%29&subcatfrom=A&filefrom=A#mw-pages
p1331
aV/w/index.php?title=Category:All_disambiguation_pages&pagefrom=The+Silver+Tassie&subcatfrom=A&filefrom=A#mw-pages
p1332
aV/w/index.php?title=Category:All_disambiguation_pages&pagefrom=Their+Greatest+Hits&subcatfrom=A&filefrom=A#mw-pages
p1333
aV/w/index.php?title=Category:All_disambiguation_pages&pagefrom=Theresianum+%28disambiguation%29&subcatfrom=A&filefrom=A#mw-pages
p1334
aV/w/index.php?title=Category:All_disambiguation_pages&pagefrom=Third&subcatfrom=A&filefrom=A#mw-pages
p1335
aV/w/index.php?title=Category:All_disambiguation_pages&pagefrom=This+Week&subcatfrom=A&filefrom=A#mw-pages
p1336
aV/w/index.php?title=Category:All_disambiguation_pages&pagefrom=Thomas+Brodrick&subcatfrom=A&filefrom=A#mw-pages
p1337
aV/w/index.php?title=Category:All_disambiguation_pages&pagefrom=Thomas+Devitt&subcatfrom=A&filefrom=A#mw-pages
p1338
aV/w/index.php?title=Category:All_disambiguation_pages&pagefrom=Thomas+Gorman&subcatfrom=A&filefrom=A#mw-pages
p1339
aV/w/index.php?title=Category:All_disambiguation_pages&pagefrom=Thomas+Keightley+%28disambiguation%29&subcatfrom=A&filefrom=A#mw-pages
p1340
aV/w/index.php?title=Category:All_disambiguation_pages&pagefrom=Thomas+Morgan&subcatfrom=A&filefrom=A#mw-pages
p1341
aV/w/index.php?title=Category:All_disambiguation_pages&pagefrom=Thomas+Sanderson&subcatfrom=A&filefrom=A#mw-pages
p1342
aV/w/index.php?title=Category:All_disambiguation_pages&pagefrom=Thomas+Whitney&subcatfrom=A&filefrom=A#mw-pages
p1343
aV/w/index.php?title=Category:All_disambiguation_pages&pagefrom=Thornton+Township&subcatfrom=A&filefrom=A#mw-pages
p1344
aV/w/index.php?title=Category:All_disambiguation_pages&pagefrom=Three-piece&subcatfrom=A&filefrom=A#mw-pages
p1345
aV/w/index.php?title=Category:All_disambiguation_pages&pagefrom=Thyla&subcatfrom=A&filefrom=A#mw-pages
p1346
aV/w/index.php?title=Category:All_disambiguation_pages&pagefrom=Tide+mill+%28disambiguation%29&subcatfrom=A&filefrom=A#mw-pages
p1347
aV/w/index.php?title=Category:All_disambiguation_pages&pagefrom=Tilden+Township&subcatfrom=A&filefrom=A#mw-pages
p1348
aV/w/index.php?title=Category:All_disambiguation_pages&pagefrom=Timber+Wolf&subcatfrom=A&filefrom=A#mw-pages
p1349
aV/w/index.php?title=Category:All_disambiguation_pages&pagefrom=Timothy+I&subcatfrom=A&filefrom=A#mw-pages
p1350
aV/w/index.php?title=Category:All_disambiguation_pages&pagefrom=Tipsy&subcatfrom=A&filefrom=A#mw-pages
p1351
aV/w/index.php?title=Category:All_disambiguation_pages&pagefrom=TK&subcatfrom=A&filefrom=A#mw-pages
p1352
aV/w/index.php?title=Category:All_disambiguation_pages&pagefrom=To+You&subcatfrom=A&filefrom=A#mw-pages
p1353
aV/w/index.php?title=Category:All_disambiguation_pages&pagefrom=Toi&subcatfrom=A&filefrom=A#mw-pages
p1354
aV/w/index.php?title=Category:All_disambiguation_pages&pagefrom=Tolton&subcatfrom=A&filefrom=A#mw-pages
p1355
aV/w/index.php?title=Category:All_disambiguation_pages&pagefrom=Tom%C3%A1s+Herrera&subcatfrom=A&filefrom=A#mw-pages
p1356
aV/w/index.php?title=Category:All_disambiguation_pages&pagefrom=Tongariro+%28disambiguation%29&subcatfrom=A&filefrom=A#mw-pages
p1357
aV/w/index.php?title=Category:All_disambiguation_pages&pagefrom=Tony+Randazzo&subcatfrom=A&filefrom=A#mw-pages
p1358
aV/w/index.php?title=Category:All_disambiguation_pages&pagefrom=Topkinsky&subcatfrom=A&filefrom=A#mw-pages
p1359
aV/w/index.php?title=Category:All_disambiguation_pages&pagefrom=Torrecilla&subcatfrom=A&filefrom=A#mw-pages
p1360
aV/w/index.php?title=Category:All_disambiguation_pages&pagefrom=Touchdown+Jesus&subcatfrom=A&filefrom=A#mw-pages
p1361
aV/w/index.php?title=Category:All_disambiguation_pages&pagefrom=Townsville+State+Government+Offices&subcatfrom=A&filefrom=A#mw-pages
p1362
aV/w/index.php?title=Category:All_disambiguation_pages&pagefrom=Trading+Up&subcatfrom=A&filefrom=A#mw-pages
p1363
aV/w/index.php?title=Category:All_disambiguation_pages&pagefrom=Transit+camp&subcatfrom=A&filefrom=A#mw-pages
p1364
aV/w/index.php?title=Category:All_disambiguation_pages&pagefrom=Traxx&subcatfrom=A&filefrom=A#mw-pages
p1365
aV/w/index.php?title=Category:All_disambiguation_pages&pagefrom=Treehouse+Trolls&subcatfrom=A&filefrom=A#mw-pages
p1366
aV/w/index.php?title=Category:All_disambiguation_pages&pagefrom=Tri-Cities&subcatfrom=A&filefrom=A#mw-pages
p1367
aV/w/index.php?title=Category:All_disambiguation_pages&pagefrom=Trimester&subcatfrom=A&filefrom=A#mw-pages
p1368
aV/w/index.php?title=Category:All_disambiguation_pages&pagefrom=Triumph+of+Death&subcatfrom=A&filefrom=A#mw-pages
p1369
aV/w/index.php?title=Category:All_disambiguation_pages&pagefrom=Trowbridge+%28disambiguation%29&subcatfrom=A&filefrom=A#mw-pages
p1370
aV/w/index.php?title=Category:All_disambiguation_pages&pagefrom=Truszki&subcatfrom=A&filefrom=A#mw-pages
p1371
aV/w/index.php?title=Category:All_disambiguation_pages&pagefrom=Tsoy&subcatfrom=A&filefrom=A#mw-pages
p1372
aV/w/index.php?title=Category:All_disambiguation_pages&pagefrom=Tucket&subcatfrom=A&filefrom=A#mw-pages
p1373
aV/w/index.php?title=Category:All_disambiguation_pages&pagefrom=Tumulus+%28disambiguation%29&subcatfrom=A&filefrom=A#mw-pages
p1374
aV/w/index.php?title=Category:All_disambiguation_pages&pagefrom=Turkey+Creek&subcatfrom=A&filefrom=A#mw-pages
p1375
aV/w/index.php?title=Category:All_disambiguation_pages&pagefrom=Turzyn&subcatfrom=A&filefrom=A#mw-pages
p1376
aV/w/index.php?title=Category:All_disambiguation_pages&pagefrom=Tween+%28disambiguation%29&subcatfrom=A&filefrom=A#mw-pages
p1377
aV/w/index.php?title=Category:All_disambiguation_pages&pagefrom=Two+Minds+%28disambiguation%29&subcatfrom=A&filefrom=A#mw-pages
p1378
aV/w/index.php?title=Category:All_disambiguation_pages&pagefrom=Type+011%0AType+11&subcatfrom=A&filefrom=A#mw-pages
p1379
aV/w/index.php?title=Category:All_disambiguation_pages&pagefrom=U+Street+%28disambiguation%29&subcatfrom=A&filefrom=A#mw-pages
p1380
aV/w/index.php?title=Category:All_disambiguation_pages&pagefrom=Ubinsky&subcatfrom=A&filefrom=A#mw-pages
p1381
aV/w/index.php?title=Category:All_disambiguation_pages&pagefrom=UEG&subcatfrom=A&filefrom=A#mw-pages
p1382
aV/w/index.php?title=Category:All_disambiguation_pages&pagefrom=UK+Independence+Party+leadership+election&subcatfrom=A&filefrom=A#mw-pages
p1383
aV/w/index.php?title=Category:All_disambiguation_pages&pagefrom=Ultramix&subcatfrom=A&filefrom=A#mw-pages
p1384
aV/w/index.php?title=Category:All_disambiguation_pages&pagefrom=Unbreakable+Tour&subcatfrom=A&filefrom=A#mw-pages
p1385
aV/w/index.php?title=Category:All_disambiguation_pages&pagefrom=Une+vie&subcatfrom=A&filefrom=A#mw-pages
p1386
aV/w/index.php?title=Category:All_disambiguation_pages&pagefrom=Union+Methodist+Episcopal+Church&subcatfrom=A&filefrom=A#mw-pages
p1387
aV/w/index.php?title=Category:All_disambiguation_pages&pagefrom=United+States+in+World+War+II&subcatfrom=A&filefrom=A#mw-pages
p1388
aV/w/index.php?title=Category:All_disambiguation_pages&pagefrom=University+of+Madrid&subcatfrom=A&filefrom=A#mw-pages
p1389
aV/w/index.php?title=Category:All_disambiguation_pages&pagefrom=Untrue&subcatfrom=A&filefrom=A#mw-pages
p1390
aV/w/index.php?title=Category:All_disambiguation_pages&pagefrom=Upside&subcatfrom=A&filefrom=A#mw-pages
p1391
aV/w/index.php?title=Category:All_disambiguation_pages&pagefrom=Urrea&subcatfrom=A&filefrom=A#mw-pages
p1392
aV/w/index.php?title=Category:All_disambiguation_pages&pagefrom=Usman&subcatfrom=A&filefrom=A#mw-pages
p1393
aV/w/index.php?title=Category:All_disambiguation_pages&pagefrom=Utica+High+School&subcatfrom=A&filefrom=A#mw-pages
p1394
aV/w/index.php?title=Category:All_disambiguation_pages&pagefrom=V.+gigantea&subcatfrom=A&filefrom=A#mw-pages
p1395
aV/w/index.php?title=Category:All_disambiguation_pages&pagefrom=Vadali&subcatfrom=A&filefrom=A#mw-pages
p1396
aV/w/index.php?title=Category:All_disambiguation_pages&pagefrom=Valea+Lacului+River&subcatfrom=A&filefrom=A#mw-pages
p1397
aV/w/index.php?title=Category:All_disambiguation_pages&pagefrom=Valiyangadi&subcatfrom=A&filefrom=A#mw-pages
p1398
aV/w/index.php?title=Category:All_disambiguation_pages&pagefrom=Vampire+King&subcatfrom=A&filefrom=A#mw-pages
p1399
aV/w/index.php?title=Category:All_disambiguation_pages&pagefrom=Vanity+%28disambiguation%29&subcatfrom=A&filefrom=A#mw-pages
p1400
aV/w/index.php?title=Category:All_disambiguation_pages&pagefrom=Varsovia&subcatfrom=A&filefrom=A#mw-pages
p1401
aV/w/index.php?title=Category:All_disambiguation_pages&pagefrom=Vaux&subcatfrom=A&filefrom=A#mw-pages
p1402
aV/w/index.php?title=Category:All_disambiguation_pages&pagefrom=Veggies&subcatfrom=A&filefrom=A#mw-pages
p1403
aV/w/index.php?title=Category:All_disambiguation_pages&pagefrom=Venice+Project%2C+The%0AThe+Venice+Project+%28disambiguation%29&subcatfrom=A&filefrom=A#mw-pages
p1404
aV/w/index.php?title=Category:All_disambiguation_pages&pagefrom=Verkhniy+Karalar&subcatfrom=A&filefrom=A#mw-pages
p1405
aV/w/index.php?title=Category:All_disambiguation_pages&pagefrom=Vesper&subcatfrom=A&filefrom=A#mw-pages
p1406
aV/w/index.php?title=Category:All_disambiguation_pages&pagefrom=VIBGYOR&subcatfrom=A&filefrom=A#mw-pages
p1407
aV/w/index.php?title=Category:All_disambiguation_pages&pagefrom=Victoria+Cross+%28disambiguation%29&subcatfrom=A&filefrom=A#mw-pages
p1408
aV/w/index.php?title=Category:All_disambiguation_pages&pagefrom=Vietnam+Veterans+Memorial+Highway&subcatfrom=A&filefrom=A#mw-pages
p1409
aV/w/index.php?title=Category:All_disambiguation_pages&pagefrom=Vile&subcatfrom=A&filefrom=A#mw-pages
p1410
aV/w/index.php?title=Category:All_disambiguation_pages&pagefrom=Vincent+Chin&subcatfrom=A&filefrom=A#mw-pages
p1411
aV/w/index.php?title=Category:All_disambiguation_pages&pagefrom=Virgil+Gheorghiu&subcatfrom=A&filefrom=A#mw-pages
p1412
aV/w/index.php?title=Category:All_disambiguation_pages&pagefrom=Vishy&subcatfrom=A&filefrom=A#mw-pages
p1413
aV/w/index.php?title=Category:All_disambiguation_pages&pagefrom=Viviana&subcatfrom=A&filefrom=A#mw-pages
p1414
aV/w/index.php?title=Category:All_disambiguation_pages&pagefrom=Vlora+of+Albania&subcatfrom=A&filefrom=A#mw-pages
p1415
aV/w/index.php?title=Category:All_disambiguation_pages&pagefrom=Volenice&subcatfrom=A&filefrom=A#mw-pages
p1416
aV/w/index.php?title=Category:All_disambiguation_pages&pagefrom=Voose&subcatfrom=A&filefrom=A#mw-pages
p1417
aV/w/index.php?title=Category:All_disambiguation_pages&pagefrom=V%C5%99esina&subcatfrom=A&filefrom=A#mw-pages
p1418
aV/w/index.php?title=Category:All_disambiguation_pages&pagefrom=VVS&subcatfrom=A&filefrom=A#mw-pages
p1419
aV/w/index.php?title=Category:All_disambiguation_pages&pagefrom=WABC&subcatfrom=A&filefrom=A#mw-pages
p1420
aV/w/index.php?title=Category:All_disambiguation_pages&pagefrom=Waikiki+%28disambiguation%29&subcatfrom=A&filefrom=A#mw-pages
p1421
aV/w/index.php?title=Category:All_disambiguation_pages&pagefrom=Waldfl%C3%B6te&subcatfrom=A&filefrom=A#mw-pages
p1422
aV/w/index.php?title=Category:All_disambiguation_pages&pagefrom=Wallace%2C+George%0AGeorge+Wallace+%28disambiguation%29&subcatfrom=A&filefrom=A#mw-pages
p1423
aV/w/index.php?title=Category:All_disambiguation_pages&pagefrom=Walter+Cobb&subcatfrom=A&filefrom=A#mw-pages
p1424
aV/w/index.php?title=Category:All_disambiguation_pages&pagefrom=Walter+Stern&subcatfrom=A&filefrom=A#mw-pages
p1425
aV/w/index.php?title=Category:All_disambiguation_pages&pagefrom=Wang+Jin&subcatfrom=A&filefrom=A#mw-pages
p1426
aV/w/index.php?title=Category:All_disambiguation_pages&pagefrom=War+Eagle+%28disambiguation%29&subcatfrom=A&filefrom=A#mw-pages
p1427
aV/w/index.php?title=Category:All_disambiguation_pages&pagefrom=Warner+Spacewalker&subcatfrom=A&filefrom=A#mw-pages
p1428
aV/w/index.php?title=Category:All_disambiguation_pages&pagefrom=Washakie+%28disambiguation%29&subcatfrom=A&filefrom=A#mw-pages
p1429
aV/w/index.php?title=Category:All_disambiguation_pages&pagefrom=Watchtower+%28disambiguation%29&subcatfrom=A&filefrom=A#mw-pages
p1430
aV/w/index.php?title=Category:All_disambiguation_pages&pagefrom=Watford+Grammar+School&subcatfrom=A&filefrom=A#mw-pages
p1431
aV/w/index.php?title=Category:All_disambiguation_pages&pagefrom=Wayback&subcatfrom=A&filefrom=A#mw-pages
p1432
aV/w/index.php?title=Category:All_disambiguation_pages&pagefrom=WBOB&subcatfrom=A&filefrom=A#mw-pages
p1433
aV/w/index.php?title=Category:All_disambiguation_pages&pagefrom=WCSN&subcatfrom=A&filefrom=A#mw-pages
p1434
aV/w/index.php?title=Category:All_disambiguation_pages&pagefrom=Weakening&subcatfrom=A&filefrom=A#mw-pages
p1435
aV/w/index.php?title=Category:All_disambiguation_pages&pagefrom=Weekend+Nation&subcatfrom=A&filefrom=A#mw-pages
p1436
aV/w/index.php?title=Category:All_disambiguation_pages&pagefrom=Welcome+Stranger+%28disambiguation%29&subcatfrom=A&filefrom=A#mw-pages
p1437
aV/w/index.php?title=Category:All_disambiguation_pages&pagefrom=Wendell+Anderson+%28disambiguation%29&subcatfrom=A&filefrom=A#mw-pages
p1438
aV/w/index.php?title=Category:All_disambiguation_pages&pagefrom=West+Bradford&subcatfrom=A&filefrom=A#mw-pages
p1439
aV/w/index.php?title=Category:All_disambiguation_pages&pagefrom=West+Tisbury&subcatfrom=A&filefrom=A#mw-pages
p1440
aV/w/index.php?title=Category:All_disambiguation_pages&pagefrom=Westfield+station&subcatfrom=A&filefrom=A#mw-pages
p1441
aV/w/index.php?title=Category:All_disambiguation_pages&pagefrom=Wever&subcatfrom=A&filefrom=A#mw-pages
p1442
aV/w/index.php?title=Category:All_disambiguation_pages&pagefrom=WGRY&subcatfrom=A&filefrom=A#mw-pages
p1443
aV/w/index.php?title=Category:All_disambiguation_pages&pagefrom=Whatever+It+Takes&subcatfrom=A&filefrom=A#mw-pages
p1444
aV/w/index.php?title=Category:All_disambiguation_pages&pagefrom=Where+Has+Love+Gone%3F&subcatfrom=A&filefrom=A#mw-pages
p1445
aV/w/index.php?title=Category:All_disambiguation_pages&pagefrom=White+Cliffs+of+Dover+%28disambiguation%29&subcatfrom=A&filefrom=A#mw-pages
p1446
aV/w/index.php?title=Category:All_disambiguation_pages&pagefrom=White+Terror&subcatfrom=A&filefrom=A#mw-pages
p1447
aV/w/index.php?title=Category:All_disambiguation_pages&pagefrom=WHJC&subcatfrom=A&filefrom=A#mw-pages
p1448
aV/w/index.php?title=Category:All_disambiguation_pages&pagefrom=Wicked+Lady%2C+The%0AThe+Wicked+Lady+%28disambiguation%29&subcatfrom=A&filefrom=A#mw-pages
p1449
aV/w/index.php?title=Category:All_disambiguation_pages&pagefrom=Wiggo&subcatfrom=A&filefrom=A#mw-pages
p1450
aV/w/index.php?title=Category:All_disambiguation_pages&pagefrom=Wildash&subcatfrom=A&filefrom=A#mw-pages
p1451
aV/w/index.php?title=Category:All_disambiguation_pages&pagefrom=Willem+Janssen&subcatfrom=A&filefrom=A#mw-pages
p1452
aV/w/index.php?title=Category:All_disambiguation_pages&pagefrom=William+Bogart&subcatfrom=A&filefrom=A#mw-pages
p1453
aV/w/index.php?title=Category:All_disambiguation_pages&pagefrom=William+Chipman&subcatfrom=A&filefrom=A#mw-pages
p1454
aV/w/index.php?title=Category:All_disambiguation_pages&pagefrom=William+Dietrich&subcatfrom=A&filefrom=A#mw-pages
p1455
aV/w/index.php?title=Category:All_disambiguation_pages&pagefrom=William+Frazer&subcatfrom=A&filefrom=A#mw-pages
p1456
aV/w/index.php?title=Category:All_disambiguation_pages&pagefrom=William+Hastings&subcatfrom=A&filefrom=A#mw-pages
p1457
aV/w/index.php?title=Category:All_disambiguation_pages&pagefrom=William+Jephson&subcatfrom=A&filefrom=A#mw-pages
p1458
aV/w/index.php?title=Category:All_disambiguation_pages&pagefrom=William+Maclay&subcatfrom=A&filefrom=A#mw-pages
p1459
aV/w/index.php?title=Category:All_disambiguation_pages&pagefrom=William+Neill&subcatfrom=A&filefrom=A#mw-pages
p1460
aV/w/index.php?title=Category:All_disambiguation_pages&pagefrom=William+Prosser&subcatfrom=A&filefrom=A#mw-pages
p1461
aV/w/index.php?title=Category:All_disambiguation_pages&pagefrom=William+Snyder&subcatfrom=A&filefrom=A#mw-pages
p1462
aV/w/index.php?title=Category:All_disambiguation_pages&pagefrom=William+Waller+%28disambiguation%29&subcatfrom=A&filefrom=A#mw-pages
p1463
aV/w/index.php?title=Category:All_disambiguation_pages&pagefrom=Willie+Allen&subcatfrom=A&filefrom=A#mw-pages
p1464
aV/w/index.php?title=Category:All_disambiguation_pages&pagefrom=Wilson+Wood&subcatfrom=A&filefrom=A#mw-pages
p1465
aV/w/index.php?title=Category:All_disambiguation_pages&pagefrom=Windsor+School&subcatfrom=A&filefrom=A#mw-pages
p1466
aV/w/index.php?title=Category:All_disambiguation_pages&pagefrom=Winter+holiday&subcatfrom=A&filefrom=A#mw-pages
p1467
aV/w/index.php?title=Category:All_disambiguation_pages&pagefrom=Wissington&subcatfrom=A&filefrom=A#mw-pages
p1468
aV/w/index.php?title=Category:All_disambiguation_pages&pagefrom=WJKL&subcatfrom=A&filefrom=A#mw-pages
p1469
aV/w/index.php?title=Category:All_disambiguation_pages&pagefrom=WLHN&subcatfrom=A&filefrom=A#mw-pages
p1470
aV/w/index.php?title=Category:All_disambiguation_pages&pagefrom=WMTD&subcatfrom=A&filefrom=A#mw-pages
p1471
aV/w/index.php?title=Category:All_disambiguation_pages&pagefrom=W%C3%B3jtostwo&subcatfrom=A&filefrom=A#mw-pages
p1472
aV/w/index.php?title=Category:All_disambiguation_pages&pagefrom=Womb+%28disambiguation%29&subcatfrom=A&filefrom=A#mw-pages
p1473
aV/w/index.php?title=Category:All_disambiguation_pages&pagefrom=Woodcrest&subcatfrom=A&filefrom=A#mw-pages
p1474
aV/w/index.php?title=Category:All_disambiguation_pages&pagefrom=Woolner&subcatfrom=A&filefrom=A#mw-pages
p1475
aV/w/index.php?title=Category:All_disambiguation_pages&pagefrom=World+Is+Yours%2C+The%0AThe+World+Is+Yours&subcatfrom=A&filefrom=A#mw-pages
p1476
aV/w/index.php?title=Category:All_disambiguation_pages&pagefrom=WOZN&subcatfrom=A&filefrom=A#mw-pages
p1477
aV/w/index.php?title=Category:All_disambiguation_pages&pagefrom=Wreckers%2C+The%0AThe+Wreckers+%28disambiguation%29&subcatfrom=A&filefrom=A#mw-pages
p1478
aV/w/index.php?title=Category:All_disambiguation_pages&pagefrom=WRUB&subcatfrom=A&filefrom=A#mw-pages
p1479
aV/w/index.php?title=Category:All_disambiguation_pages&pagefrom=WTHK+%28disambiguation%29&subcatfrom=A&filefrom=A#mw-pages
p1480
aV/w/index.php?title=Category:All_disambiguation_pages&pagefrom=Wuping&subcatfrom=A&filefrom=A#mw-pages
p1481
aV/w/index.php?title=Category:All_disambiguation_pages&pagefrom=WWWF&subcatfrom=A&filefrom=A#mw-pages
p1482
aV/w/index.php?title=Category:All_disambiguation_pages&pagefrom=Wyss+Institute&subcatfrom=A&filefrom=A#mw-pages
p1483
aV/w/index.php?title=Category:All_disambiguation_pages&pagefrom=Xaxa&subcatfrom=A&filefrom=A#mw-pages
p1484
aV/w/index.php?title=Category:All_disambiguation_pages&pagefrom=Xianjing&subcatfrom=A&filefrom=A#mw-pages
p1485
aV/w/index.php?title=Category:All_disambiguation_pages&pagefrom=Xiqin&subcatfrom=A&filefrom=A#mw-pages
p1486
aV/w/index.php?title=Category:All_disambiguation_pages&pagefrom=Xuxa+%28disambiguation%29&subcatfrom=A&filefrom=A#mw-pages
p1487
aV/w/index.php?title=Category:All_disambiguation_pages&pagefrom=Yakov+Etinger&subcatfrom=A&filefrom=A#mw-pages
p1488
aV/w/index.php?title=Category:All_disambiguation_pages&pagefrom=Yangcheng&subcatfrom=A&filefrom=A#mw-pages
p1489
aV/w/index.php?title=Category:All_disambiguation_pages&pagefrom=Yasmin+Khan+%28disambiguation%29&subcatfrom=A&filefrom=A#mw-pages
p1490
aV/w/index.php?title=Category:All_disambiguation_pages&pagefrom=Yeelanna&subcatfrom=A&filefrom=A#mw-pages
p1491
aV/w/index.php?title=Category:All_disambiguation_pages&pagefrom=Yengi+Orkh&subcatfrom=A&filefrom=A#mw-pages
p1492
aV/w/index.php?title=Category:All_disambiguation_pages&pagefrom=Yi+He&subcatfrom=A&filefrom=A#mw-pages
p1493
aV/w/index.php?title=Category:All_disambiguation_pages&pagefrom=Yoho&subcatfrom=A&filefrom=A#mw-pages
p1494
aV/w/index.php?title=Category:All_disambiguation_pages&pagefrom=Yoshimura+Ch%C5%8Dgi&subcatfrom=A&filefrom=A#mw-pages
p1495
aV/w/index.php?title=Category:All_disambiguation_pages&pagefrom=Young+Labour&subcatfrom=A&filefrom=A#mw-pages
p1496
aV/w/index.php?title=Category:All_disambiguation_pages&pagefrom=Ytre&subcatfrom=A&filefrom=A#mw-pages
p1497
aV/w/index.php?title=Category:All_disambiguation_pages&pagefrom=Yunak+%28disambiguation%29&subcatfrom=A&filefrom=A#mw-pages
p1498
aV/w/index.php?title=Category:All_disambiguation_pages&pagefrom=Yves+Trudeau&subcatfrom=A&filefrom=A#mw-pages
p1499
aV/w/index.php?title=Category:All_disambiguation_pages&pagefrom=Zafaran&subcatfrom=A&filefrom=A#mw-pages
p1500
aV/w/index.php?title=Category:All_disambiguation_pages&pagefrom=Zamet&subcatfrom=A&filefrom=A#mw-pages
p1501
aV/w/index.php?title=Category:All_disambiguation_pages&pagefrom=Zarinsky&subcatfrom=A&filefrom=A#mw-pages
p1502
aV/w/index.php?title=Category:All_disambiguation_pages&pagefrom=Zdrojek&subcatfrom=A&filefrom=A#mw-pages
p1503
aV/w/index.php?title=Category:All_disambiguation_pages&pagefrom=Zenti&subcatfrom=A&filefrom=A#mw-pages
p1504
aV/w/index.php?title=Category:All_disambiguation_pages&pagefrom=Zhang+Xi&subcatfrom=A&filefrom=A#mw-pages
p1505
aV/w/index.php?title=Category:All_disambiguation_pages&pagefrom=Zhuge+Liang+%28disambiguation%29&subcatfrom=A&filefrom=A#mw-pages
p1506
aV/w/index.php?title=Category:All_disambiguation_pages&pagefrom=Zirakabad&subcatfrom=A&filefrom=A#mw-pages
p1507
aV/w/index.php?title=Category:All_disambiguation_pages&pagefrom=Zon&subcatfrom=A&filefrom=A#mw-pages
p1508
aV/w/index.php?title=Category:All_disambiguation_pages&pagefrom=Zug+%28disambiguation%29&subcatfrom=A&filefrom=A#mw-pages
p1509
aV/w/index.php?title=Category:All_disambiguation_pages&pagefrom=%E5%88%80+%28disambiguation%29&subcatfrom=A&filefrom=A#mw-pages
p1510
a.