(dp0
V\U0001d54a
p1
(lp2
(V/wiki/N-sphere
p3
VN-sphere
p4
tp5
a(V/wiki/Sedenion
p6
VSedenion
p7
tp8
asV-s
p9
(lp10
(V/wiki/English_plural
p11
VEnglish plural
p12
tp13
a(V/wiki/English_verbs
p14
VEnglish verbs
p15
tp16
a(V/wiki/French_grammar
p17
VFrench grammar
p18
tp19
asV's
p20
(lp21
(V/wiki/English_possessive
p22
VEnglish possessive
p23
tp24
a(V/wiki/English_contractions
p25
VEnglish contractions
p26
tp27
a(V/wiki/English_plural
p28
VEnglish plural
p29
tp30
a(V/wiki/%27s-Hertogenbosch
p31
V's-Hertogenbosch
p32
tp33
asV%s
p34
(lp35
sVS (disambiguation)
p36
(lp37
(V#General
p38
Ntp39
a(V#Language_and_linguistics
p40
Ntp41
a(V#Mathematics_and_logic
p42
Ntp43
a(V#Physics_and_chemistry
p44
Ntp45
a(V#Biology_and_medicine
p46
Ntp47
a(V#Computing
p48
Ntp49
a(V#Books
p50
Ntp51
a(V#People
p52
Ntp53
a(V#Music
p54
Ntp55
a(V#Television
p56
Ntp57
a(V#Other_uses
p58
Ntp59
a(V#See_also
p60
Ntp61
asVS bridge (disambiguation)
p62
(lp63
(V/wiki/Claysville_S_Bridge
p64
VClaysville S Bridge
p65
tp66
a(V/wiki/S_Bridge_(Womelsdorf,_Pennsylvania)
p67
VS Bridge (Womelsdorf, Pennsylvania)
p68
tp69
a(V/wiki/S_Bridge_II
p70
VS Bridge II
p71
tp72
asVS class
p73
(lp74
(V#Automobiles
p75
Ntp76
a(V#Locomotives
p77
Ntp78
a(V#Ships
p79
Ntp80
a(V#See_also
p81
Ntp82
asVS Curve
p83
(lp84
(V/wiki/S_Curve_(art)
p85
VS Curve (art)
p86
tp87
a(V/wiki/S-Curve_Records
p88
VS-Curve Records
p89
tp90
a(V/wiki/S-curve_(math)
p91
VS-curve (math)
p92
tp93
a(V#cite_note-1
p94
Ntp95
a(V/wiki/Logistic_function
p96
VLogistic function
p97
tp98
a(V/wiki/Reverse_curve
p99
VReverse curve
p100
tp101
asVS Line
p102
(lp103
(V/wiki/S-train
p104
VS-train
p105
tp106
a(V/wiki/S-train_(Copenhagen)
p107
VS-train (Copenhagen)
p108
tp109
a(V/wiki/Seaboard_Air_Line_Railroad
p110
VSeaboard Air Line Railroad
p111
tp112
a(V/wiki/S-Line_(Norfolk_Southern)
p113
VS-Line (Norfolk Southern)
p114
tp115
a(V/wiki/S_Castro_Shuttle
p116
VS Castro Shuttle
p117
tp118
a(V/wiki/S_(New_York_City_Subway_service)
p119
VS (New York City Subway service)
p120
tp121
a(V/wiki/S_Line_(Utah_Transit_Authority)
p122
VS Line (Utah Transit Authority)
p123
tp124
asVS mode
p125
(lp126
(V/wiki/S_mode_(photography)
p127
VS mode (photography)
p128
tp129
a(V/wiki/Mode_S
p130
VMode S
p131
tp132
a(V/wiki/S-mode_1
p133
VS-mode 1
p134
tp135
a(V/wiki/S-mode_2
p136
VS-mode 2
p137
tp138
a(V/wiki/S-mode_3
p139
VS-mode 3
p140
tp141
a(V/wiki/Windows_10_editions#S
p142
VWindows 10 editions
p143
tp144
asVS number
p145
(lp146
(V/wiki/Meter_Point_Administration_Number
p147
VMeter Point Administration Number
p148
tp149
a(V/wiki/S_number_(wool)
p150
VS number (wool)
p151
tp152
a(V/wiki/Singular_value
p153
VSingular value
p154
tp155
asVS road
p156
(lp157
(V/wiki/Expressways_of_Poland
p158
VExpressways of Poland
p159
tp160
a(V/wiki/California_County_Routes_in_zone_S
p161
VCalifornia County Routes in zone S
p162
tp163
a(g161
g162
tp164
a(V/wiki/Corridor_S
p165
VCorridor S
p166
tp167
asVS series
p168
(lp169
(V#Transportation
p170
Ntp171
a(V#Technology
p172
Ntp173
a(V#Other_uses
p174
Ntp175
a(V#See_also
p176
Ntp177
asVS stars
p178
(lp179
(V/wiki/S-type_star
p180
VS-type star
p181
tp182
a(V/wiki/Sagittarius_A*#Central_black_hole
p183
VSagittarius A*
p184
tp185
a(V/wiki/S*
p186
VS*
p187
tp188
asVS Train
p189
(lp190
(V/wiki/S-train_(Copenhagen)
p191
VS-train (Copenhagen)
p192
tp193
a(V/wiki/S_(New_York_City_Subway_service)
p194
VS (New York City Subway service)
p195
tp196
a(V/wiki/Franklin_Avenue_Shuttle
p197
VFranklin Avenue Shuttle
p198
tp199
a(V/wiki/42nd_Street_Shuttle
p200
V42nd Street Shuttle
p201
tp202
a(V/wiki/Rockaway_Park_Shuttle
p203
VRockaway Park Shuttle
p204
tp205
a(V/wiki/S_Castro_Shuttle
p206
VS Castro Shuttle
p207
tp208
a(V/wiki/S_Line_(Utah_Transit_Authority)
p209
VS Line (Utah Transit Authority)
p210
tp211
a(V/wiki/S-Train_(Korail)
p212
VS-Train (Korail)
p213
tp214
a(V/wiki/S-Train_(Seibu)
p215
VS-Train (Seibu)
p216
tp217
a(V/wiki/MTR_CNR_Changchun_EMU
p218
VMTR CNR Changchun EMU
p219
tp220
asVS v Tembani
p221
(lp222
(V/wiki/S_v_Tembani_(1998)
p223
VS v Tembani (1998)
p224
tp225
a(V/wiki/S_v_Tembani_(2006)
p226
VS v Tembani (2006)
p227
tp228
asVThe "s" word
p229
(lp230
(V/wiki/Shit
p231
VShit
p232
tp233
a(V/wiki/John_Nichols_(journalist)
p234
VJohn Nichols (journalist)
p235
tp236
asVS-adenosyl-L-methionine:N,N-dimethylglycine N-methyltransferase
p237
(lp238
(V/wiki/Sarcosine/dimethylglycine_N-methyltransferase
p239
VSarcosine/dimethylglycine N-methyltransferase
p240
tp241
a(V/wiki/Dimethylglycine_N-methyltransferase
p242
VDimethylglycine N-methyltransferase
p243
tp244
asVS-alkyl-L-cysteine sulfoxide lyase
p245
(lp246
(V/wiki/S-alkylcysteine_lyase
p247
VS-alkylcysteine lyase
p248
tp249
a(V/wiki/Alliinase
p250
VAlliinase
p251
tp252
asVS-Bahn Zentralschweiz
p253
(lp254
(V/wiki/Lucerne_S-Bahn
p255
VLucerne S-Bahn
p256
tp257
a(V/wiki/Zug_Stadtbahn
p258
VZug Stadtbahn
p259
tp260
asVS-boat
p261
(lp262
(V/wiki/Schnellboot
p263
VSchnellboot
p264
tp265
a(V/wiki/United_States_S-class_submarine
p266
VUnited States S-class submarine
p267
tp268
a(V/wiki/British_S-class_submarine_(1914)
p269
VBritish S-class submarine (1914)
p270
tp271
a(V/wiki/British_S-class_submarine_(1931)
p272
VBritish S-class submarine (1931)
p273
tp274
asVS-CHIP
p275
(lp276
(V/wiki/Children%27s_Health_Insurance_Program#State_administration
p277
VChildren's Health Insurance Program
p278
tp279
a(V/wiki/S-Chips
p280
VS-Chips
p281
tp282
asVS-class destroyer
p283
(lp284
(V/wiki/S-class_destroyer_(1917)
p285
VS-class destroyer (1917)
p286
tp287
a(V/wiki/S_and_T-class_destroyer
p288
VS and T-class destroyer
p289
tp290
asVS-class submarine
p291
(lp292
(V/wiki/British_S-class_submarine_(1914)
p293
VBritish S-class submarine (1914)
p294
tp295
a(V/w/index.php?title=Italian_S-class_submarine&action=edit&redlink=1
p296
VItalian S-class submarine (page does not exist)
p297
tp298
a(V/wiki/United_States_S-class_submarine
p299
VUnited States S-class submarine
p300
tp301
a(V/wiki/British_S-class_submarine_(1931)
p302
VBritish S-class submarine (1931)
p303
tp304
a(V/wiki/Soviet_S-class_submarine
p305
VSoviet S-class submarine
p306
tp307
a(V/w/index.php?title=Ha-9-class_submarine&action=edit&redlink=1
p308
VHa-9-class submarine (page does not exist)
p309
tp310
asVS-function
p311
(lp312
(V/wiki/Sigmoid_function
p313
VSigmoid function
p314
tp315
a(V/wiki/Schur_polynomials
p316
VSchur polynomials
p317
tp318
a(V/w/index.php?title=Slesarenko_function&action=edit&redlink=1
p319
VSlesarenko function (page does not exist)
p320
tp321
a(V/wiki/Laplace_transform
p322
VLaplace transform
p323
tp324
asVS-mount
p325
(lp326
(V/wiki/Kodak_S-mount
p327
VKodak S-mount
p328
tp329
a(V/wiki/Nikon_S-mount
p330
VNikon S-mount
p331
tp332
a(V/wiki/Leica_S-mount
p333
VLeica S-mount
p334
tp335
a(V/wiki/S-mount_(CCTV_lens)
p336
VS-mount (CCTV lens)
p337
tp338
asVS-number
p339
(lp340
(V/wiki/Mahler%27s_classification
p341
VMahler's classification
p342
tp343
a(V/wiki/Meter_Point_Administration_Number
p344
VMeter Point Administration Number
p345
tp346
a(V/wiki/Singular_value
p347
VSingular value
p348
tp349
asVS-rank
p350
(lp351
(V/wiki/NatureServe_conservation_status
p352
VNatureServe conservation status
p353
tp354
a(V/wiki/Academic_grading_in_Japan
p355
VAcademic grading in Japan
p356
tp357
a(V/wiki/Czech_Republic
p358
VCzech Republic
p359
tp360
asVS-TEC
p361
(lp362
(V/wiki/S-TEC_Corporation
p363
VS-TEC Corporation
p364
tp365
a(V/wiki/Daewoo_S-TEC_engine
p366
VDaewoo S-TEC engine
p367
tp368
asVS-Type
p369
(lp370
(V/wiki/S-Type_(Music)
p371
VS-Type (Music)
p372
tp373
a(V/wiki/S-type_asteroid
p374
VS-type asteroid
p375
tp376
a(V/wiki/S_type_carriage
p377
VS type carriage
p378
tp379
a(V/wiki/S-type_star
p380
VS-type star
p381
tp382
a(V/wiki/Jaguar_S-Type
p383
VJaguar S-Type
p384
tp385
a(V/wiki/Jensen_S-type
p386
VJensen S-type
p387
tp388
a(V/wiki/Soviet_S-class_submarine
p389
VSoviet S-class submarine
p390
tp391
asVS. acaulis
p392
(lp393
(V/wiki/Silene_acaulis
p394
VSilene acaulis
p395
tp396
a(V/wiki/Stenotus_acaulis
p397
VStenotus acaulis
p398
tp399
asVS. aethiopica
p400
(lp401
(V/wiki/Scutigera_aethiopica
p402
VScutigera aethiopica
p403
tp404
a(V/wiki/Sphodromantis_aethiopica
p405
VSphodromantis aethiopica
p406
tp407
a(V/w/index.php?title=Stachys_aethiopica&action=edit&redlink=1
p408
VStachys aethiopica (page does not exist)
p409
tp410
a(V/wiki/Stathmodera_aethiopica
p411
VStathmodera aethiopica
p412
tp413
a(V/wiki/Stenalia_aethiopica
p414
VStenalia aethiopica
p415
tp416
a(V/wiki/Stenoptilia_aethiopica
p417
VStenoptilia aethiopica
p418
tp419
asVS. africana
p420
(lp421
(V/wiki/Sasia_africana
p422
VSasia africana
p423
tp424
a(V/wiki/Sparrmannia_africana
p425
VSparrmannia africana
p426
tp427
a(V/wiki/Spirostachys_africana
p428
VSpirostachys africana
p429
tp430
a(V/wiki/Squatina_africana
p431
VSquatina africana
p432
tp433
asVS. alba
p434
(lp435
(V/wiki/Salix_alba
p436
VSalix alba
p437
tp438
a(V/wiki/Sinapis_alba
p439
VSinapis alba
p440
tp441
a(V/wiki/Spiraea_alba
p442
VSpiraea alba
p443
tp444
asVS. alboniger
p445
(lp446
(V/wiki/Streptomyces_alboniger
p447
VStreptomyces alboniger
p448
tp449
a(V/wiki/Spizaetus_alboniger
p450
VSpizaetus alboniger
p451
tp452
asVS. albus
p453
(lp454
(V/wiki/Scaphirhynchus_albus
p455
VScaphirhynchus albus
p456
tp457
a(V/wiki/Streptomyces_albus
p458
VStreptomyces albus
p459
tp460
a(V/wiki/Coagulase
p461
VCoagulase
p462
tp463
asVS. americanus
p464
(lp465
(V/wiki/Samolus_americanus
p466
VSamolus americanus
p467
tp468
a(V/wiki/Schoenoplectus_americanus
p469
VSchoenoplectus americanus
p470
tp471
a(V/w/index.php?title=Scyllarus_americanus&action=edit&redlink=1
p472
VScyllarus americanus (page does not exist)
p473
tp474
a(V/wiki/Siphonorhis_americanus
p475
VSiphonorhis americanus
p476
tp477
a(V/wiki/Spondylus_americanus
p478
VSpondylus americanus
p479
tp480
a(V/wiki/Styrax_americanus
p481
VStyrax americanus
p482
tp483
a(V/w/index.php?title=Symbion_americanus&action=edit&redlink=1
p484
VSymbion americanus (page does not exist)
p485
tp486
asVS. amseli
p487
(lp488
(V/wiki/Scopula_amseli
p489
VScopula amseli
p490
tp491
a(V/wiki/Scrobipalpa_amseli
p492
VScrobipalpa amseli
p493
tp494
a(V/wiki/Stagmatophora_amseli
p495
VStagmatophora amseli
p496
tp497
a(V/wiki/Stenoptilia_amseli
p498
VStenoptilia amseli
p499
tp500
asVS. andrewi
p501
(lp502
(V/w/index.php?title=Sinployea_andrewi&action=edit&redlink=1
p503
VSinployea andrewi (page does not exist)
p504
tp505
a(V/w/index.php?title=Strymon_andrewi&action=edit&redlink=1
p506
VStrymon andrewi (page does not exist)
p507
tp508
asVS. arabica
p509
(lp510
(V/wiki/Siccia_arabica
p511
VSiccia arabica
p512
tp513
a(V/wiki/Sillago_arabica
p514
VSillago arabica
p515
tp516
asVS. arenarius
p517
(lp518
(V/wiki/Spalax_arenarius
p519
VSpalax arenarius
p520
tp521
a(V/wiki/Spalerosophis_arenarius
p522
VSpalerosophis arenarius
p523
tp524
asVS. argentina
p525
(lp526
(V/wiki/Scutigera_argentina
p527
VScutigera argentina
p528
tp529
a(V/wiki/Squatina_argentina
p530
VSquatina argentina
p531
tp532
asVS. armata
p533
(lp534
(V/wiki/Scorpaenopsella_armata
p535
VScorpaenopsella armata
p536
tp537
a(V/wiki/Stephensia_armata
p538
VStephensia armata
p539
tp540
asVS. armatus
p541
(lp542
(V/wiki/Sclerosaurus_armatus
p543
VSclerosaurus armatus
p544
tp545
a(V/wiki/Spermophilus_armatus
p546
VSpermophilus armatus
p547
tp548
a(V/wiki/Stegosaurus_armatus
p549
VStegosaurus armatus
p550
tp551
asVS. arvensis
p552
(lp553
(V/wiki/Sherardia_arvensis
p554
VSherardia arvensis
p555
tp556
a(V/wiki/Sinapis_arvensis
p557
VSinapis arvensis
p558
tp559
a(V/wiki/Sonchus_arvensis
p560
VSonchus arvensis
p561
tp562
a(V/wiki/Spergula_arvensis
p563
VSpergula arvensis
p564
tp565
asVS. asiaticus
p566
(lp567
(V/w/index.php?title=Silometopoides_asiaticus&action=edit&redlink=1
p568
VSilometopoides asiaticus (page does not exist)
p569
tp570
a(V/wiki/Struthio_asiaticus
p571
VStruthio asiaticus
p572
tp573
a(V/w/index.php?title=Stylodrilus_asiaticus&action=edit&redlink=1
p574
VStylodrilus asiaticus (page does not exist)
p575
tp576
asVS. aurantiaca
p577
(lp578
(V/wiki/Sandersonia_aurantiaca
p579
VSandersonia aurantiaca
p580
tp581
a(V/wiki/Schinia_aurantiaca
p582
VSchinia aurantiaca
p583
tp584
a(V/wiki/Sepiola_aurantiaca
p585
VSepiola aurantiaca
p586
tp587
a(V/wiki/Stigmatella_aurantiaca
p588
VStigmatella aurantiaca
p589
tp590
asVS. aureus
p591
(lp592
(V/wiki/Scleropages_aureus
p593
VScleropages aureus
p594
tp595
a(V/wiki/Senecio_aureus
p596
VSenecio aureus
p597
tp598
a(V/wiki/Sericulus_aureus
p599
VSericulus aureus
p600
tp601
a(V/wiki/Somatogyrus_aureus
p602
VSomatogyrus aureus
p603
tp604
a(V/wiki/Staphylococcus_aureus
p605
VStaphylococcus aureus
p606
tp607
asVS. australis
p608
(lp609
(V/wiki/Sauromalus_australis
p610
VSauromalus australis
p611
tp612
a(V/wiki/Schenkia_australis
p613
VSchenkia australis
p614
tp615
a(V/wiki/Scolypopa_australis
p616
VScolypopa australis
p617
tp618
a(V/wiki/Scytothamnus_australis
p619
VScytothamnus australis
p620
tp621
a(V/wiki/Sloanea_australis
p622
VSloanea australis
p623
tp624
a(V/wiki/Smilax_australis
p625
VSmilax australis
p626
tp627
a(V/wiki/Soroavisaurus_australis
p628
VSoroavisaurus australis
p629
tp630
a(V/wiki/Suaeda_australis
p631
VSuaeda australis
p632
tp633
a(V/wiki/Syconycteris_australis
p634
VSyconycteris australis
p635
tp636
asVS. bakeri
p637
(lp638
(V/wiki/Sericulus_bakeri
p639
VSericulus bakeri
p640
tp641
a(V/wiki/Spartina_bakeri
p642
VSpartina bakeri
p643
tp644
asVS. Balakrishnan
p645
(lp646
(V/wiki/S._Balakrishnan_(composer)
p647
VS. Balakrishnan (composer)
p648
tp649
a(V/wiki/S._Balakrishnan_(Mudukulathur_MLA)
p650
VS. Balakrishnan (Mudukulathur MLA)
p651
tp652
a(V/wiki/S._Balakrishnan_(Modakurichi_MLA)
p653
VS. Balakrishnan (Modakurichi MLA)
p654
tp655
asVS. bidentata
p656
(lp657
(V/wiki/Scaphyglottis_bidentata
p658
VScaphyglottis bidentata
p659
tp660
a(V/w/index.php?title=Stelis_bidentata&action=edit&redlink=1
p661
VStelis bidentata (page does not exist)
p662
tp663
a(V/w/index.php?title=Styringomyia_bidentata&action=edit&redlink=1
p664
VStyringomyia bidentata (page does not exist)
p665
tp666
a(V/w/index.php?title=Succisa_bidentata&action=edit&redlink=1
p667
VSuccisa bidentata (page does not exist)
p668
tp669
asVS. brasiliensis
p670
(lp671
(V/wiki/Salminus_brasiliensis
p672
VSalminus brasiliensis
p673
tp674
a(V/wiki/Scomberomorus_brasiliensis
p675
VScomberomorus brasiliensis
p676
tp677
a(V/w/index.php?title=Scutiger_brasiliensis&action=edit&redlink=1
p678
VScutiger brasiliensis (page does not exist)
p679
tp680
a(V/wiki/Senecio_brasiliensis
p681
VSenecio brasiliensis
p682
tp683
a(V/w/index.php?title=Sinningia_brasiliensis&action=edit&redlink=1
p684
VSinningia brasiliensis (page does not exist)
p685
tp686
a(V/wiki/Sphenodiscus_brasiliensis
p687
VSphenodiscus brasiliensis
p688
tp689
a(V/wiki/Sylvilagus_brasiliensis
p690
VSylvilagus brasiliensis
p691
tp692
asVS. calcarata
p693
(lp694
(V/wiki/Scaphiophryne_calcarata
p695
VScaphiophryne calcarata
p696
tp697
a(V/wiki/Scolopendra_calcarata
p698
VScolopendra calcarata
p699
tp700
a(V/wiki/Scopula_calcarata
p701
VScopula calcarata
p702
tp703
a(V/wiki/Stenodema_calcarata
p704
VStenodema calcarata
p705
tp706
asVS. californica
p707
(lp708
(V/wiki/Schizopelte_californica
p709
VSchizopelte californica
p710
tp711
a(V/wiki/Scrophularia_californica
p712
VScrophularia californica
p713
tp714
a(V/wiki/Scutellaria_californica
p715
VScutellaria californica
p716
tp717
a(V/wiki/Smilax_californica
p718
VSmilax californica
p719
tp720
a(V/wiki/Sorbus_californica
p721
VSorbus californica
p722
tp723
a(V/wiki/Squatina_californica
p724
VSquatina californica
p725
tp726
a(V/wiki/Stagmomantis_californica
p727
VStagmomantis californica
p728
tp729
asVS. camerata
p730
(lp731
(V/wiki/Sapheneutis_camerata
p732
VSapheneutis camerata
p733
tp734
a(V/wiki/Schistocerca_camerata
p735
VSchistocerca camerata
p736
tp737
asVS. candida
p738
(lp739
(V/wiki/Salix_candida
p740
VSalix candida
p741
tp742
a(V/wiki/Sidalcea_candida
p743
VSidalcea candida
p744
tp745
a(V/wiki/Stanhopea_candida
p746
VStanhopea candida
p747
tp748
a(V/wiki/Sternbergia_candida
p749
VSternbergia candida
p750
tp751
asVS. canina
p752
(lp753
(V/w/index.php?title=Scrophularia_canina&action=edit&redlink=1
p754
VScrophularia canina (page does not exist)
p755
tp756
a(V/wiki/Snyderidia_canina
p757
VSnyderidia canina
p758
tp759
asVS. canus
p760
(lp761
(V/wiki/Scytalopus_canus
p762
VScytalopus canus
p763
tp764
a(V/wiki/Spermophilus_canus
p765
VSpermophilus canus
p766
tp767
asVS. carbonaria
p768
(lp769
(V/wiki/Scaphis_carbonaria
p770
VScaphis carbonaria
p771
tp772
a(V/wiki/Schistura_carbonaria
p773
VSchistura carbonaria
p774
tp775
asVS. carnea
p776
(lp777
(V/w/index.php?title=Salvia_carnea&action=edit&redlink=1
p778
VSalvia carnea (page does not exist)
p779
tp780
a(V/w/index.php?title=Sarcina_carnea&action=edit&redlink=1
p781
VSarcina carnea (page does not exist)
p782
tp783
a(V/w/index.php?title=Savia_carnea&action=edit&redlink=1
p784
VSavia carnea (page does not exist)
p785
tp786
a(V/wiki/Scilla_carnea
p787
VScilla carnea
p788
tp789
a(V/w/index.php?title=Sparganophilus_carnea&action=edit&redlink=1
p790
VSparganophilus carnea (page does not exist)
p791
tp792
asVS. cataracta
p793
(lp794
(V/wiki/Schistura_cataracta
p795
VSchistura cataracta
p796
tp797
a(V/wiki/Scolopendra_cataracta
p798
VScolopendra cataracta
p799
tp800
asVS. celebensis
p801
(lp802
(V/wiki/Scotophilus_celebensis
p803
VScotophilus celebensis
p804
tp805
a(V/wiki/Strigocuscus_celebensis
p806
VStrigocuscus celebensis
p807
tp808
asVS. chinensis
p809
(lp810
(V/wiki/Salvia_chinensis
p811
VSalvia chinensis
p812
tp813
a(V/wiki/Schisandra_chinensis
p814
VSchisandra chinensis
p815
tp816
a(V/wiki/Simmondsia_chinensis
p817
VSimmondsia chinensis
p818
tp819
a(V/wiki/Sousa_chinensis
p820
VSousa chinensis
p821
tp822
a(V/wiki/Stachyurus_chinensis
p823
VStachyurus chinensis
p824
tp825
a(V/wiki/Spilopelia_chinensis
p826
VSpilopelia chinensis
p827
tp828
asVS. cinnabarina
p829
(lp830
(V/w/index.php?title=Salvia_cinnabarina&action=edit&redlink=1
p831
VSalvia cinnabarina (page does not exist)
p832
tp833
a(V/w/index.php?title=Sophronitis_cinnabarina&action=edit&redlink=1
p834
VSophronitis cinnabarina (page does not exist)
p835
tp836
a(V/wiki/Stilbella_cinnabarina
p837
VStilbella cinnabarina
p838
tp839
asVS. cinnamomea
p840
(lp841
(V/wiki/Sporophila_cinnamomea
p842
VSporophila cinnamomea
p843
tp844
a(V/wiki/Synallaxis_cinnamomea
p845
VSynallaxis cinnamomea
p846
tp847
a(V/wiki/Syrnola_cinnamomea
p848
VSyrnola cinnamomea
p849
tp850
asVS. citri
p851
(lp852
(V/wiki/Septoria_citri
p853
VSeptoria citri
p854
tp855
a(V/wiki/Spiroplasma_citri
p856
VSpiroplasma citri
p857
tp858
asVS. coccinea
p859
(lp860
(V/wiki/Sarcoscypha_coccinea
p861
VSarcoscypha coccinea
p862
tp863
a(V/wiki/Sophronitis_coccinea
p864
VSophronitis coccinea
p865
tp866
asVS. communis
p867
(lp868
(V/wiki/Sepsis_communis
p869
VSepsis communis
p870
tp871
a(V/wiki/Sylvia_communis
p872
VSylvia communis
p873
tp874
asVS. concinna
p875
(lp876
(V/wiki/Schinia_concinna
p877
VSchinia concinna
p878
tp879
a(V/w/index.php?title=Schismatoglottis_concinna&action=edit&redlink=1
p880
VSchismatoglottis concinna (page does not exist)
p881
tp882
a(V/wiki/Schizura_concinna
p883
VSchizura concinna
p884
tp885
a(V/w/index.php?title=Scissurella_concinna&action=edit&redlink=1
p886
VScissurella concinna (page does not exist)
p887
tp888
a(V/wiki/Sepsis_concinna
p889
VSepsis concinna
p890
tp891
a(V/w/index.php?title=Sigara_concinna&action=edit&redlink=1
p892
VSigara concinna (page does not exist)
p893
tp894
a(V/w/index.php?title=Siphonalia_concinna&action=edit&redlink=1
p895
VSiphonalia concinna (page does not exist)
p896
tp897
a(V/wiki/Stenelmis_concinna
p898
VStenelmis concinna
p899
tp900
a(V/w/index.php?title=Stratiomys_concinna&action=edit&redlink=1
p901
VStratiomys concinna (page does not exist)
p902
tp903
a(V/w/index.php?title=Swainsona_concinna&action=edit&redlink=1
p904
VSwainsona concinna (page does not exist)
p905
tp906
a(V/wiki/Synaptocochlea_concinna
p907
VSynaptocochlea concinna
p908
tp909
asVS. concolor
p910
(lp911
(V/wiki/Salanoia_concolor
p912
VSalanoia concolor
p913
tp914
a(V/wiki/Schippia_concolor
p915
VSchippia concolor
p916
tp917
a(V/wiki/Simias_concolor
p918
VSimias concolor
p919
tp920
asVS. cornutus
p921
(lp922
(V/wiki/Saltuarius_cornutus
p923
VSaltuarius cornutus
p924
tp925
a(V/w/index.php?title=Syndesus_cornutus&action=edit&redlink=1
p926
VSyndesus cornutus (page does not exist)
p927
tp928
asVS. costata
p929
(lp930
(V/wiki/Schefflera_costata
p931
VSchefflera costata
p932
tp933
a(V/wiki/Scissurella_costata
p934
VScissurella costata
p935
tp936
a(V/wiki/Scopula_costata
p937
VScopula costata
p938
tp939
a(V/wiki/Sepaicutea_costata
p940
VSepaicutea costata
p941
tp942
a(V/wiki/Spilarctia_costata
p943
VSpilarctia costata
p944
tp945
a(V/wiki/Symplocos_costata
p946
VSymplocos costata
p947
tp948
asVS. crispa
p949
(lp950
(V/w/index.php?title=Saussurea_crispa&action=edit&redlink=1
p951
VSaussurea crispa (page does not exist)
p952
tp953
a(V/wiki/Schomburgkia_crispa
p954
VSchomburgkia crispa
p955
tp956
a(V/wiki/Sophronitis_crispa
p957
VSophronitis crispa
p958
tp959
a(V/wiki/Sparassis_crispa
p960
VSparassis crispa
p961
tp962
a(V/wiki/Stellaria_crispa
p963
VStellaria crispa
p964
tp965
asVS. crocea
p966
(lp967
(V/w/index.php?title=Scorzoneroides_crocea&action=edit&redlink=1
p968
VScorzoneroides crocea (page does not exist)
p969
tp970
a(V/wiki/Seila_crocea
p971
VSeila crocea
p972
tp973
a(V/w/index.php?title=Sobralia_crocea&action=edit&redlink=1
p974
VSobralia crocea (page does not exist)
p975
tp976
a(V/w/index.php?title=Solorina_crocea&action=edit&redlink=1
p977
VSolorina crocea (page does not exist)
p978
tp979
a(V/w/index.php?title=Stenaroa_crocea&action=edit&redlink=1
p980
VStenaroa crocea (page does not exist)
p981
tp982
a(V/wiki/Sychnovalva_crocea
p983
VSychnovalva crocea
p984
tp985
asVS. cyaneus
p986
(lp987
(V/wiki/Sassacus_cyaneus
p988
VSassacus cyaneus
p989
tp990
a(V/wiki/Sirex_cyaneus
p991
VSirex cyaneus
p992
tp993
a(V/wiki/Streptomyces_cyaneus
p994
VStreptomyces cyaneus
p995
tp996
asVS. danae
p997
(lp998
(V/wiki/Scinax_danae
p999
VScinax danae
p1000
tp1001
a(V/wiki/Sympetrum_danae
p1002
VSympetrum danae
p1003
tp1004
asVS. darwini
p1005
(lp1006
(V/w/index.php?title=Sapphirina_darwini&action=edit&redlink=1
p1007
VSapphirina darwini (page does not exist)
p1008
tp1009
a(V/w/index.php?title=Scenopinus_darwini&action=edit&redlink=1
p1010
VScenopinus darwini (page does not exist)
p1011
tp1012
a(V/w/index.php?title=Scolytogenes_darwini&action=edit&redlink=1
p1013
VScolytogenes darwini (page does not exist)
p1014
tp1015
a(V/w/index.php?title=Scolytomimus_darwini&action=edit&redlink=1
p1016
VScolytomimus darwini (page does not exist)
p1017
tp1018
a(V/wiki/Semicossyphus_darwini
p1019
VSemicossyphus darwini
p1020
tp1021
a(V/w/index.php?title=Semiformiceras_darwini&action=edit&redlink=1
p1022
VSemiformiceras darwini (page does not exist)
p1023
tp1024
a(V/wiki/Senoculus_darwini
p1025
VSenoculus darwini
p1026
tp1027
a(V/w/index.php?title=Spurlingia_darwini&action=edit&redlink=1
p1028
VSpurlingia darwini (page does not exist)
p1029
tp1030
a(V/wiki/Stenaelurillus_darwini
p1031
VStenaelurillus darwini
p1032
tp1033
a(V/w/index.php?title=Stenoconchyoptera_darwini&action=edit&redlink=1
p1034
VStenoconchyoptera darwini (page does not exist)
p1035
tp1036
a(V/w/index.php?title=Stylatula_darwini&action=edit&redlink=1
p1037
VStylatula darwini (page does not exist)
p1038
tp1039
a(V/w/index.php?title=Szuletaia_darwini&action=edit&redlink=1
p1040
VSzuletaia darwini (page does not exist)
p1041
tp1042
asVS. darwinii
p1043
(lp1044
(V/wiki/Sapphirina_darwinii
p1045
VSapphirina darwinii
p1046
tp1047
a(V/w/index.php?title=Senecio_darwinii&action=edit&redlink=1
p1048
VSenecio darwinii (page does not exist)
p1049
tp1050
asVS. debile
p1051
(lp1052
(V/wiki/Sedum_debile
p1053
VSedum debile
p1054
tp1055
a(V/wiki/Stylidium_debile
p1056
VStylidium debile
p1057
tp1058
asVS. dentata
p1059
(lp1060
(V/wiki/Smilisca_dentata
p1061
VSmilisca dentata
p1062
tp1063
a(V/wiki/Stygicola_dentata
p1064
VStygicola dentata
p1065
tp1066
asVS. domesticus
p1067
(lp1068
(V/w/index.php?title=Scotophaeus_domesticus&action=edit&redlink=1
p1069
VScotophaeus domesticus (page does not exist)
p1070
tp1071
a(V/wiki/Sus_domesticus
p1072
VSus domesticus
p1073
tp1074
asVS. dubia
p1075
(lp1076
(V/wiki/Sepia_dubia
p1077
VSepia dubia
p1078
tp1079
a(V/wiki/Schoeniparus_dubia
p1080
VSchoeniparus dubia
p1081
tp1082
a(V/wiki/Sphyraena_dubia
p1083
VSphyraena dubia
p1084
tp1085
a(V/w/index.php?title=Staehelina_dubia&action=edit&redlink=1
p1086
VStaehelina dubia (page does not exist)
p1087
tp1088
asVS. edule
p1089
(lp1090
(V/wiki/Saccharum_edule
p1091
VSaccharum edule
p1092
tp1093
a(V/wiki/Sechium_edule
p1094
VSechium edule
p1095
tp1096
asVS. ehrenbergi
p1097
(lp1098
(V/wiki/Spalax_ehrenbergi
p1099
VSpalax ehrenbergi
p1100
tp1101
a(V/wiki/Sporisorium_ehrenbergi
p1102
VSporisorium ehrenbergi
p1103
tp1104
asVS. ehrenbergii
p1105
(lp1106
(V/wiki/Sansevieria_ehrenbergii
p1107
VSansevieria ehrenbergii
p1108
tp1109
a(V/w/index.php?title=Saropogon_ehrenbergii&action=edit&redlink=1
p1110
VSaropogon ehrenbergii (page does not exist)
p1111
tp1112
a(V/w/index.php?title=Solanum_ehrenbergii&action=edit&redlink=1
p1113
VSolanum ehrenbergii (page does not exist)
p1114
tp1115
a(V/w/index.php?title=Stachys_ehrenbergii&action=edit&redlink=1
p1116
VStachys ehrenbergii (page does not exist)
p1117
tp1118
asVS. elegans
p1119
(lp1120
(V/wiki/Sagartia_elegans
p1121
VSagartia elegans
p1122
tp1123
a(V/wiki/Salvia_elegans
p1124
VSalvia elegans
p1125
tp1126
a(V/wiki/Scyphocrinus_elegans
p1127
VScyphocrinus elegans
p1128
tp1129
a(V/wiki/Securigera_elegans
p1130
VSecurigera elegans
p1131
tp1132
a(V/wiki/Sphaerodactylus_elegans
p1133
VSphaerodactylus elegans
p1134
tp1135
a(V/wiki/Stachybotrys
p1136
VStachybotrys
p1137
tp1138
a(V/wiki/Staurogyne_elegans
p1139
VStaurogyne elegans
p1140
tp1141
a(V/wiki/Steindachnerina_elegans
p1142
VSteindachnerina elegans
p1143
tp1144
a(V/wiki/Sphodromantis_elegans
p1145
VSphodromantis elegans
p1146
tp1147
a(V/wiki/Sympycnus_elegans
p1148
VSympycnus elegans
p1149
tp1150
asVS. elegantissima
p1151
(lp1152
(V/wiki/Sasakiconcha_elegantissima
p1153
VSasakiconcha elegantissima
p1154
tp1155
a(V/wiki/Schefflera_elegantissima
p1156
VSchefflera elegantissima
p1157
tp1158
a(V/wiki/Seguenzia_elegantissima
p1159
VSeguenzia elegantissima
p1160
tp1161
asVS. equi
p1162
(lp1163
(V/wiki/Sarcoptes_equi
p1164
VSarcoptes equi
p1165
tp1166
a(V/wiki/Streptococcus_equi
p1167
VStreptococcus equi
p1168
tp1169
asVS. erectum
p1170
(lp1171
(V/wiki/Satyrium_erectum
p1172
VSatyrium erectum
p1173
tp1174
a(V/wiki/Sparganium_erectum
p1175
VSparganium erectum
p1176
tp1177
asVS. erythraea
p1178
(lp1179
(V/wiki/Saccharopolyspora_erythraea
p1180
VSaccharopolyspora erythraea
p1181
tp1182
a(V/w/index.php?title=Sporocladopsis_erythraea&action=edit&redlink=1
p1183
VSporocladopsis erythraea (page does not exist)
p1184
tp1185
asVS. erythraeae
p1186
(lp1187
(V/w/index.php?title=Sansevieria_erythraeae&action=edit&redlink=1
p1188
VSansevieria erythraeae (page does not exist)
p1189
tp1190
a(V/w/index.php?title=Sonchus_erythraeae&action=edit&redlink=1
p1191
VSonchus erythraeae (page does not exist)
p1192
tp1193
asVS. exigua
p1194
(lp1195
(V/wiki/Salix_exigua
p1196
VSalix exigua
p1197
tp1198
a(V/wiki/Scirpus_exigua
p1199
VScirpus exigua
p1200
tp1201
a(V/wiki/Scopula_exigua
p1202
VScopula exigua
p1203
tp1204
a(V/w/index.php?title=Selliera_exigua&action=edit&redlink=1
p1205
VSelliera exigua (page does not exist)
p1206
tp1207
a(V/w/index.php?title=Sertularella_exigua&action=edit&redlink=1
p1208
VSertularella exigua (page does not exist)
p1209
tp1210
a(V/w/index.php?title=Slackia_exigua&action=edit&redlink=1
p1211
VSlackia exigua (page does not exist)
p1212
tp1213
a(V/wiki/Solariella_exigua
p1214
VSolariella exigua
p1215
tp1216
a(V/wiki/Somena_exigua
p1217
VSomena exigua
p1218
tp1219
a(V/w/index.php?title=Sophora_exigua&action=edit&redlink=1
p1220
VSophora exigua (page does not exist)
p1221
tp1222
a(V/w/index.php?title=Sphenoptera_exigua&action=edit&redlink=1
p1223
VSphenoptera exigua (page does not exist)
p1224
tp1225
a(V/wiki/Spodoptera_exigua
p1226
VSpodoptera exigua
p1227
tp1228
a(V/w/index.php?title=Stelis_exigua&action=edit&redlink=1
p1229
VStelis exigua (page does not exist)
p1230
tp1231
a(V/w/index.php?title=Stenelmis_exigua&action=edit&redlink=1
p1232
VStenelmis exigua (page does not exist)
p1233
tp1234
a(V/wiki/Stephanomeria_exigua
p1235
VStephanomeria exigua
p1236
tp1237
a(V/wiki/Synechodes_exigua
p1238
VSynechodes exigua
p1239
tp1240
asVS. fallax
p1241
(lp1242
(V/wiki/Sida_fallax
p1243
VSida fallax
p1244
tp1245
a(V/wiki/Sphagnum_fallax
p1246
VSphagnum fallax
p1247
tp1248
asVS. fenestrata
p1249
(lp1250
(V/wiki/Sphodromantis_fenestrata
p1251
VSphodromantis fenestrata
p1252
tp1253
a(V/w/index.php?title=Symplecta_fenestrata&action=edit&redlink=1
p1254
VSymplecta fenestrata (page does not exist)
p1255
tp1256
asVS. flava
p1257
(lp1258
(V/wiki/Sarracenia_flava
p1259
VSarracenia flava
p1260
tp1261
a(V/wiki/Suillia_flava
p1262
VSuillia flava
p1263
tp1264
a(V/wiki/Sphingopyxis_flava
p1265
VSphingopyxis flava
p1266
tp1267
asVS. flavescens
p1268
(lp1269
(V/wiki/Salix_flavescens
p1270
VSalix flavescens
p1271
tp1272
a(V/wiki/Scarus_flavescens
p1273
VScarus flavescens
p1274
tp1275
a(V/wiki/Sesamia_flavescens
p1276
VSesamia flavescens
p1277
tp1278
a(V/wiki/Setophaga_flavescens
p1279
VSetophaga flavescens
p1280
tp1281
a(V/wiki/Silaus_flavescens
p1282
VSilaus flavescens
p1283
tp1284
a(V/w/index.php?title=Silene_flavescens&action=edit&redlink=1
p1285
VSilene flavescens (page does not exist)
p1286
tp1287
a(V/w/index.php?title=Sitona_flavescens&action=edit&redlink=1
p1288
VSitona flavescens (page does not exist)
p1289
tp1290
a(V/w/index.php?title=Solmaris_flavescens&action=edit&redlink=1
p1291
VSolmaris flavescens (page does not exist)
p1292
tp1293
a(V/wiki/Sophora_flavescens
p1294
VSophora flavescens
p1295
tp1296
a(V/w/index.php?title=Staphylinus_flavescens&action=edit&redlink=1
p1297
VStaphylinus flavescens (page does not exist)
p1298
tp1299
a(V/w/index.php?title=Stathmopoda_flavescens&action=edit&redlink=1
p1300
VStathmopoda flavescens (page does not exist)
p1301
tp1302
a(V/w/index.php?title=Stenaroa_flavescens&action=edit&redlink=1
p1303
VStenaroa flavescens (page does not exist)
p1304
tp1305
a(V/w/index.php?title=Stenospermation_flavescens&action=edit&redlink=1
p1306
VStenospermation flavescens (page does not exist)
p1307
tp1308
a(V/wiki/Stigmella_flavescens
p1309
VStigmella flavescens
p1310
tp1311
a(V/w/index.php?title=Streptostyla_flavescens&action=edit&redlink=1
p1312
VStreptostyla flavescens (page does not exist)
p1313
tp1314
a(V/w/index.php?title=Styposis_flavescens&action=edit&redlink=1
p1315
VStyposis flavescens (page does not exist)
p1316
tp1317
a(V/wiki/Syngnathus_flavescens
p1318
VSyngnathus flavescens
p1319
tp1320
asVS. floribunda
p1321
(lp1322
(V/wiki/Scaevola_floribunda
p1323
VScaevola floribunda
p1324
tp1325
a(V/wiki/Scaphyglottis_floribunda
p1326
VScaphyglottis floribunda
p1327
tp1328
a(V/w/index.php?title=Scrophularia_floribunda&action=edit&redlink=1
p1329
VScrophularia floribunda (page does not exist)
p1330
tp1331
a(V/w/index.php?title=Soyauxia_floribunda&action=edit&redlink=1
p1332
VSoyauxia floribunda (page does not exist)
p1333
tp1334
a(V/wiki/Stephanotis_floribunda
p1335
VStephanotis floribunda
p1336
tp1337
a(V/w/index.php?title=Styphelia_floribunda&action=edit&redlink=1
p1338
VStyphelia floribunda (page does not exist)
p1339
tp1340
a(V/w/index.php?title=Sutera_floribunda&action=edit&redlink=1
p1341
VSutera floribunda (page does not exist)
p1342
tp1343
a(V/w/index.php?title=Swartzia_floribunda&action=edit&redlink=1
p1344
VSwartzia floribunda (page does not exist)
p1345
tp1346
a(V/wiki/Swintonia_floribunda
p1347
VSwintonia floribunda
p1348
tp1349
a(V/wiki/Synaphea_floribunda
p1350
VSynaphea floribunda
p1351
tp1352
asVS. formosa
p1353
(lp1354
(V/wiki/Segmentorbis_formosa
p1355
VSegmentorbis formosa
p1356
tp1357
a(V/wiki/Seguenzia_formosa
p1358
VSeguenzia formosa
p1359
tp1360
a(V/wiki/Sitta_formosa
p1361
VSitta formosa
p1362
tp1363
a(V/wiki/Squatina_formosa
p1364
VSquatina formosa
p1365
tp1366
a(V/wiki/Swainsona_formosa
p1367
VSwainsona formosa
p1368
tp1369
asVS. fragilis
p1370
(lp1371
(V/wiki/Salinator_fragilis
p1372
VSalinator fragilis
p1373
tp1374
a(V/wiki/Salix_fragilis
p1375
VSalix fragilis
p1376
tp1377
a(V/wiki/Sinocoelurus_fragilis
p1378
VSinocoelurus fragilis
p1379
tp1380
a(V/wiki/Skania_fragilis
p1381
VSkania fragilis
p1382
tp1383
a(V/w/index.php?title=Swainsona_fragilis&action=edit&redlink=1
p1384
VSwainsona fragilis (page does not exist)
p1385
tp1386
asVS. frontalis
p1387
(lp1388
(V/wiki/Scatophagus_frontalis
p1389
VScatophagus frontalis
p1390
tp1391
a(V/wiki/Sericornis_frontalis
p1392
VSericornis frontalis
p1393
tp1394
a(V/wiki/Serinus_frontalis
p1395
VSerinus frontalis
p1396
tp1397
a(V/wiki/Silvicultrix_frontalis
p1398
VSilvicultrix frontalis
p1399
tp1400
a(V/wiki/Sitta_frontalis
p1401
VSitta frontalis
p1402
tp1403
a(V/wiki/Sporophila_frontalis
p1404
VSporophila frontalis
p1405
tp1406
a(V/wiki/Sporopipes_frontalis
p1407
VSporopipes frontalis
p1408
tp1409
a(V/wiki/Stenella_frontalis
p1410
VStenella frontalis
p1411
tp1412
a(V/wiki/Synallaxis_frontalis
p1413
VSynallaxis frontalis
p1414
tp1415
asVS. fruticosus
p1416
(lp1417
(V/wiki/Siphocampylus_fruticosus
p1418
VSiphocampylus fruticosus
p1419
tp1420
a(V/wiki/Smallanthus_fruticosus
p1421
VSmallanthus fruticosus
p1422
tp1423
asVS. fulgida
p1424
(lp1425
(V/w/index.php?title=Sadies_fulgida&action=edit&redlink=1
p1426
VSadies fulgida (page does not exist)
p1427
tp1428
a(V/w/index.php?title=Sagra_fulgida&action=edit&redlink=1
p1429
VSagra fulgida (page does not exist)
p1430
tp1431
a(V/wiki/Schwartziella_fulgida
p1432
VSchwartziella fulgida
p1433
tp1434
a(V/wiki/Seguenzia_fulgida
p1435
VSeguenzia fulgida
p1436
tp1437
a(V/w/index.php?title=Swima_fulgida&action=edit&redlink=1
p1438
VSwima fulgida (page does not exist)
p1439
tp1440
asVS. gardneri
p1441
(lp1442
(V/wiki/Shorea_gardneri
p1443
VShorea gardneri
p1444
tp1445
a(V/w/index.php?title=Spathiphyllum_gardneri&action=edit&redlink=1
p1446
VSpathiphyllum gardneri (page does not exist)
p1447
tp1448
a(V/wiki/Stemonoporus_gardneri
p1449
VStemonoporus gardneri
p1450
tp1451
a(V/wiki/Semecarpus_gardneri
p1452
VSemecarpus gardneri
p1453
tp1454
asVS. gigantea
p1455
(lp1456
(V/wiki/Scea_gigantea
p1457
VScea gigantea
p1458
tp1459
a(V/wiki/Schizoglossa_gigantea
p1460
VSchizoglossa gigantea
p1461
tp1462
a(V/wiki/Scolopendra_gigantea
p1463
VScolopendra gigantea
p1464
tp1465
a(V/wiki/Spenceriella_gigantea
p1466
VSpenceriella gigantea
p1467
tp1468
a(V/w/index.php?title=Spongiochloris_gigantea&action=edit&redlink=1
p1469
VSpongiochloris gigantea (page does not exist)
p1470
tp1471
a(V/wiki/Stapelia_gigantea
p1472
VStapelia gigantea
p1473
tp1474
a(V/wiki/Stichodactyla_gigantea
p1475
VStichodactyla gigantea
p1476
tp1477
a(V/wiki/Strongylura_gigantea
p1478
VStrongylura gigantea
p1479
tp1480
asVS. giganteum
p1481
(lp1482
(V/wiki/Saccolabium_giganteum
p1483
VSaccolabium giganteum
p1484
tp1485
a(V/wiki/Sequoiadendron_giganteum
p1486
VSequoiadendron giganteum
p1487
tp1488
a(V/wiki/Sivatherium_giganteum
p1489
VSivatherium giganteum
p1490
tp1491
asVS. giganteus
p1492
(lp1493
(V/wiki/Shantungosaurus_giganteus
p1494
VShantungosaurus giganteus
p1495
tp1496
a(V/wiki/Spalax_giganteus
p1497
VSpalax giganteus
p1498
tp1499
a(V/wiki/Spirobranchus_giganteus
p1500
VSpirobranchus giganteus
p1501
tp1502
asVS. Gill
p1503
(lp1504
(V/wiki/S._Gill_(Berkshire_cricketer)
p1505
VS. Gill (Berkshire cricketer)
p1506
tp1507
a(V/wiki/President_of_the_British_Computer_Society
p1508
VPresident of the British Computer Society
p1509
tp1510
asVS. glauca
p1511
(lp1512
(V/wiki/Shorea_glauca
p1513
VShorea glauca
p1514
tp1515
a(V/wiki/Smilax_glauca
p1516
VSmilax glauca
p1517
tp1518
a(V/wiki/Stypandra_glauca
p1519
VStypandra glauca
p1520
tp1521
asVS. gouldii
p1522
(lp1523
(V/w/index.php?title=Scotophilus_gouldii&action=edit&redlink=1
p1524
VScotophilus gouldii (page does not exist)
p1525
tp1526
a(V/wiki/Selenidera_gouldii
p1527
VSelenidera gouldii
p1528
tp1529
asVS. gracilis
p1530
(lp1531
(V/wiki/Sageretia_gracilis
p1532
VSageretia gracilis
p1533
tp1534
a(V/w/index.php?title=Sarcocystis_gracilis&action=edit&redlink=1
p1535
VSarcocystis gracilis (page does not exist)
p1536
tp1537
a(V/wiki/Saurida_gracilis
p1538
VSaurida gracilis
p1539
tp1540
a(V/wiki/Scaphispatha_gracilis
p1541
VScaphispatha gracilis
p1542
tp1543
a(V/wiki/Sellosaurus_gracilis
p1544
VSellosaurus gracilis
p1545
tp1546
a(V/w/index.php?title=Senoculus_gracilis&action=edit&redlink=1
p1547
VSenoculus gracilis (page does not exist)
p1548
tp1549
a(V/wiki/Sepiadarium_gracilis
p1550
VSepiadarium gracilis
p1551
tp1552
a(V/wiki/Sillago_gracilis
p1553
VSillago gracilis
p1554
tp1555
a(V/wiki/Sloanea_gracilis
p1556
VSloanea gracilis
p1557
tp1558
a(V/wiki/Smilodectes_gracilis
p1559
VSmilodectes gracilis
p1560
tp1561
a(V/wiki/Smilodon_gracilis
p1562
VSmilodon gracilis
p1563
tp1564
a(V/wiki/Spartina_gracilis
p1565
VSpartina gracilis
p1566
tp1567
a(V/wiki/Sphodromantis_gracilis
p1568
VSphodromantis gracilis
p1569
tp1570
a(V/wiki/Spilogale_gracilis
p1571
VSpilogale gracilis
p1572
tp1573
a(V/wiki/Spratelloides_gracilis
p1574
VSpratelloides gracilis
p1575
tp1576
a(V/wiki/Stemonoporus_gracilis
p1577
VStemonoporus gracilis
p1578
tp1579
a(V/wiki/Streptocephalus_gracilis
p1580
VStreptocephalus gracilis
p1581
tp1582
a(V/wiki/Syrnolopsis_gracilis
p1583
VSyrnolopsis gracilis
p1584
tp1585
asVS. grandiflora
p1586
(lp1587
(V/wiki/Sageraea_grandiflora
p1588
VSageraea grandiflora
p1589
tp1590
a(V/wiki/Sarcolaena_grandiflora
p1591
VSarcolaena grandiflora
p1592
tp1593
a(V/wiki/Sesbania_grandiflora
p1594
VSesbania grandiflora
p1595
tp1596
a(V/wiki/Solandra_grandiflora
p1597
VSolandra grandiflora
p1598
tp1599
a(V/wiki/Sophronitis_grandiflora
p1600
VSophronitis grandiflora
p1601
tp1602
a(V/wiki/Stanhopea_grandiflora
p1603
VStanhopea grandiflora
p1604
tp1605
a(V/wiki/Stapelia_grandiflora
p1606
VStapelia grandiflora
p1607
tp1608
asVS. grandis
p1609
(lp1610
(V/w/index.php?title=Schiffermuelleria_grandis&action=edit&redlink=1
p1611
VSchiffermuelleria grandis (page does not exist)
p1612
tp1613
a(V/w/index.php?title=Stypandra_grandis&action=edit&redlink=1
p1614
VStypandra grandis (page does not exist)
p1615
tp1616
a(V/wiki/Synaphea_grandis
p1617
VSynaphea grandis
p1618
tp1619
asVS. graveolens
p1620
(lp1621
(V/wiki/Sanicula_graveolens
p1622
VSanicula graveolens
p1623
tp1624
a(V/wiki/Stanhopea_graveolens
p1625
VStanhopea graveolens
p1626
tp1627
asVS. H. Dudley
p1628
(lp1629
(V/wiki/Sherman_H._Dudley
p1630
VSherman H. Dudley
p1631
tp1632
a(V/wiki/S._H._Dudley_(singer)
p1633
VS. H. Dudley (singer)
p1634
tp1635
asVS. hastata
p1636
(lp1637
(V/w/index.php?title=Salvinia_hastata&action=edit&redlink=1
p1638
VSalvinia hastata (page does not exist)
p1639
tp1640
a(V/wiki/Selliguea_hastata
p1641
VSelliguea hastata
p1642
tp1643
asVS. heterophylla
p1644
(lp1645
(V/wiki/Schinopsis_heterophylla
p1646
VSchinopsis heterophylla
p1647
tp1648
a(V/wiki/Stylomecon_heterophylla
p1649
VStylomecon heterophylla
p1650
tp1651
asVS. hirsuta
p1652
(lp1653
(V/wiki/Sororoditha_hirsuta
p1654
VSororoditha hirsuta
p1655
tp1656
a(V/wiki/Staurogyne_hirsuta
p1657
VStaurogyne hirsuta
p1658
tp1659
asVS. imbricata
p1660
(lp1661
(V/wiki/Scaphyglottis_imbricata
p1662
VScaphyglottis imbricata
p1663
tp1664
a(V/wiki/Salsola_imbricata
p1665
VSalsola imbricata
p1666
tp1667
asVS. incana
p1668
(lp1669
(V/wiki/Scutellaria_incana
p1670
VScutellaria incana
p1671
tp1672
a(V/wiki/Senra_incana
p1673
VSenra incana
p1674
tp1675
a(V/wiki/Sphaeralcea_incana
p1676
VSphaeralcea incana
p1677
tp1678
asVS. indica
p1679
(lp1680
(V/wiki/Salvia_indica
p1681
VSalvia indica
p1682
tp1683
a(V/wiki/Saraca_indica
p1684
VSaraca indica
p1685
tp1686
a(V/wiki/Sillago_indica
p1687
VSillago indica
p1688
tp1689
a(V/wiki/Singerina_indica
p1690
VSingerina indica
p1691
tp1692
asVS. indicum
p1693
(lp1694
(V/wiki/Schistosoma_indicum
p1695
VSchistosoma indicum
p1696
tp1697
a(V/wiki/Sesamum_indicum
p1698
VSesamum indicum
p1699
tp1700
asVS. indicus
p1701
(lp1702
(V/wiki/Sivapithecus_indicus
p1703
VSivapithecus indicus
p1704
tp1705
a(V/wiki/Sphenomorphus_indicus
p1706
VSphenomorphus indicus
p1707
tp1708
a(V/wiki/Synodus_indicus
p1709
VSynodus indicus
p1710
tp1711
a(V/wiki/Sypheotides_indicus
p1712
VSypheotides indicus
p1713
tp1714
a(V/wiki/Sphaeranthus
p1715
VSphaeranthus
p1716
tp1717
asVS. inornatus
p1718
(lp1719
(V/w/index.php?title=Samariscus_inornatus&action=edit&redlink=1
p1720
VSamariscus inornatus (page does not exist)
p1721
tp1722
a(V/w/index.php?title=Scelotes_inornatus&action=edit&redlink=1
p1723
VScelotes inornatus (page does not exist)
p1724
tp1725
asVS. intermedia
p1726
(lp1727
(V/wiki/Siren_intermedia
p1728
VSiren intermedia
p1729
tp1730
a(V/wiki/Sorbus_intermedia
p1731
VSorbus intermedia
p1732
tp1733
a(V/wiki/Splendrillia_intermedia
p1734
VSplendrillia intermedia
p1735
tp1736
a(V/wiki/Sporophila_intermedia
p1737
VSporophila intermedia
p1738
tp1739
a(V/wiki/Stanhopea_intermedia
p1740
VStanhopea intermedia
p1741
tp1742
a(V/wiki/Stigmella_intermedia
p1743
VStigmella intermedia
p1744
tp1745
a(V/wiki/Strauzia_intermedia
p1746
VStrauzia intermedia
p1747
tp1748
asVS. japonica
p1749
(lp1750
(V/wiki/Saccharina_japonica
p1751
VSaccharina japonica
p1752
tp1753
a(V/wiki/Salix_japonica
p1754
VSalix japonica
p1755
tp1756
a(V/wiki/Scopolia_japonica
p1757
VScopolia japonica
p1758
tp1759
a(V/wiki/Sillago_japonica
p1760
VSillago japonica
p1761
tp1762
a(V/wiki/Skimmia_japonica
p1763
VSkimmia japonica
p1764
tp1765
a(V/wiki/Spiraea_japonica
p1766
VSpiraea japonica
p1767
tp1768
a(V/wiki/Squatina_japonica
p1769
VSquatina japonica
p1770
tp1771
a(V/wiki/Stigmella_japonica
p1772
VStigmella japonica
p1773
tp1774
a(V/wiki/Strioterebrum_japonica
p1775
VStrioterebrum japonica
p1776
tp1777
a(V/wiki/Swertia_japonica
p1778
VSwertia japonica
p1779
tp1780
asVS. japonicum
p1781
(lp1782
(V/wiki/Schistosoma_japonicum
p1783
VSchistosoma japonicum
p1784
tp1785
a(V/wiki/Styphnolobium_japonicum
p1786
VStyphnolobium japonicum
p1787
tp1788
asVS. John Ross
p1789
(lp1790
(V/wiki/S._John_Ross_(artist)
p1791
VS. John Ross (artist)
p1792
tp1793
a(V/wiki/S._John_Ross_(game_designer)
p1794
VS. John Ross (game designer)
p1795
tp1796
asVS. juncea
p1797
(lp1798
(V/wiki/Solidago_juncea
p1799
VSolidago juncea
p1800
tp1801
a(V/w/index.php?title=Sowerbaea_juncea&action=edit&redlink=1
p1802
VSowerbaea juncea (page does not exist)
p1803
tp1804
a(V/w/index.php?title=Stelis_juncea&action=edit&redlink=1
p1805
VStelis juncea (page does not exist)
p1806
tp1807
a(V/wiki/Strelitzia_juncea
p1808
VStrelitzia juncea
p1809
tp1810
asVS. K. Singh
p1811
(lp1812
(V/wiki/Shilendra_Kumar_Singh
p1813
VShilendra Kumar Singh
p1814
tp1815
a(V/wiki/Shri_Krishna_Singh_(politician)
p1816
VShri Krishna Singh (politician)
p1817
tp1818
a(V/wiki/S._K._Singh_(general)
p1819
VS. K. Singh (general)
p1820
tp1821
a(V/wiki/Sunil_Kumar_Singh_(geochemist)
p1822
VSunil Kumar Singh (geochemist)
p1823
tp1824
asVS. K. Sinha
p1825
(lp1826
(V/wiki/Srinivas_Kumar_Sinha
p1827
VSrinivas Kumar Sinha
p1828
tp1829
a(V/wiki/Surendra_Kumar_Sinha
p1830
VSurendra Kumar Sinha
p1831
tp1832
asVS. Kumar
p1833
(lp1834
(V/wiki/S._Kumar_(cinematographer)
p1835
VS. Kumar (cinematographer)
p1836
tp1837
asVS. L. Wong (disambiguation)
p1838
(lp1839
(V/wiki/S._L._Wong
p1840
VS. L. Wong
p1841
tp1842
a(V/wiki/S._L._Wong_(phonetic_symbols)
p1843
VS. L. Wong (phonetic symbols)
p1844
tp1845
a(V/wiki/S._L._Wong_(romanisation)
p1846
VS. L. Wong (romanisation)
p1847
tp1848
asVS. laeta
p1849
(lp1850
(V/w/index.php?title=Scolopendra_laeta&action=edit&redlink=1
p1851
VScolopendra laeta (page does not exist)
p1852
tp1853
a(V/wiki/Senegalia_laeta
p1854
VSenegalia laeta
p1855
tp1856
a(V/w/index.php?title=Simianellus_laeta&action=edit&redlink=1
p1857
VSimianellus laeta (page does not exist)
p1858
tp1859
a(V/w/index.php?title=Smaragdina_laeta&action=edit&redlink=1
p1860
VSmaragdina laeta (page does not exist)
p1861
tp1862
a(V/w/index.php?title=Smicropus_laeta&action=edit&redlink=1
p1863
VSmicropus laeta (page does not exist)
p1864
tp1865
a(V/w/index.php?title=Smidtia_laeta&action=edit&redlink=1
p1866
VSmidtia laeta (page does not exist)
p1867
tp1868
a(V/wiki/Splendrillia_laeta
p1869
VSplendrillia laeta
p1870
tp1871
a(V/wiki/Strophiona_laeta
p1872
VStrophiona laeta
p1873
tp1874
a(V/w/index.php?title=Styphelia_laeta&action=edit&redlink=1
p1875
VStyphelia laeta (page does not exist)
p1876
tp1877
a(V/wiki/Synemon_laeta
p1878
VSynemon laeta
p1879
tp1880
asVS. laevis
p1881
(lp1882
(V/w/index.php?title=Scleria_laevis&action=edit&redlink=1
p1883
VScleria laevis (page does not exist)
p1884
tp1885
a(V/wiki/Serrata_laevis
p1886
VSerrata laevis
p1887
tp1888
a(V/wiki/Shorea_laevis
p1889
VShorea laevis
p1890
tp1891
a(V/w/index.php?title=Sporolactobacillus_laevis&action=edit&redlink=1
p1892
VSporolactobacillus laevis (page does not exist)
p1893
tp1894
a(V/wiki/Stokesia_laevis
p1895
VStokesia laevis
p1896
tp1897
a(V/w/index.php?title=Symphonia_laevis&action=edit&redlink=1
p1898
VSymphonia laevis (page does not exist)
p1899
tp1900
a(V/w/index.php?title=Symplecta_laevis&action=edit&redlink=1
p1901
VSymplecta laevis (page does not exist)
p1902
tp1903
asVS. lateralis
p1904
(lp1905
(V/wiki/Scincella_lateralis
p1906
VScincella lateralis
p1907
tp1908
a(V/wiki/Spermophilus_lateralis
p1909
VSpermophilus lateralis
p1910
tp1911
asVS. lepidus
p1912
(lp1913
(V/w/index.php?title=Scopelosaurus_lepidus&action=edit&redlink=1
p1914
VScopelosaurus lepidus (page does not exist)
p1915
tp1916
a(V/wiki/Sitona_lepidus
p1917
VSitona lepidus
p1918
tp1919
a(V/w/index.php?title=Stictonectes_lepidus&action=edit&redlink=1
p1920
VStictonectes lepidus (page does not exist)
p1921
tp1922
asVS. leucantha
p1923
(lp1924
(V/wiki/Salvia_leucantha
p1925
VSalvia leucantha
p1926
tp1927
a(V/wiki/Sideritis_leucantha
p1928
VSideritis leucantha
p1929
tp1930
asVS. leucoptera
p1931
(lp1932
(V/wiki/Sporophila_leucoptera
p1933
VSporophila leucoptera
p1934
tp1935
a(V/wiki/Stoloteuthis_leucoptera
p1936
VStoloteuthis leucoptera
p1937
tp1938
asVS. lutea
p1939
(lp1940
(V/wiki/Salix_lutea
p1941
VSalix lutea
p1942
tp1943
a(V/w/index.php?title=Salpistele_lutea&action=edit&redlink=1
p1944
VSalpistele lutea (page does not exist)
p1945
tp1946
a(V/w/index.php?title=Saponaria_lutea&action=edit&redlink=1
p1947
VSaponaria lutea (page does not exist)
p1948
tp1949
a(V/w/index.php?title=Sarcina_lutea&action=edit&redlink=1
p1950
VSarcina lutea (page does not exist)
p1951
tp1952
a(V/wiki/Scorpaena_lutea
p1953
VScorpaena lutea
p1954
tp1955
a(V/wiki/Scrobipalpa_lutea
p1956
VScrobipalpa lutea
p1957
tp1958
a(V/wiki/Sicalis_lutea
p1959
VSicalis lutea
p1960
tp1961
a(V/wiki/Sillago_lutea
p1962
VSillago lutea
p1963
tp1964
a(V/w/index.php?title=Siphona_lutea&action=edit&redlink=1
p1965
VSiphona lutea (page does not exist)
p1966
tp1967
a(V/wiki/Sparganothina_lutea
p1968
VSparganothina lutea
p1969
tp1970
a(V/wiki/Spilarctia_lutea
p1971
VSpilarctia lutea
p1972
tp1973
a(V/wiki/Spondias_lutea
p1974
VSpondias lutea
p1975
tp1976
a(V/w/index.php?title=Stelis_lutea&action=edit&redlink=1
p1977
VStelis lutea (page does not exist)
p1978
tp1979
a(V/wiki/Sternbergia_lutea
p1980
VSternbergia lutea
p1981
tp1982
a(V/w/index.php?title=Streptocarpus_lutea&action=edit&redlink=1
p1983
VStreptocarpus lutea (page does not exist)
p1984
tp1985
a(V/wiki/Striga_lutea
p1986
VStriga lutea
p1987
tp1988
a(V/w/index.php?title=Stromanthe_lutea&action=edit&redlink=1
p1989
VStromanthe lutea (page does not exist)
p1990
tp1991
a(V/w/index.php?title=Strongylophthalmyia_lutea&action=edit&redlink=1
p1992
VStrongylophthalmyia lutea (page does not exist)
p1993
tp1994
a(V/w/index.php?title=Strymon_lutea&action=edit&redlink=1
p1995
VStrymon lutea (page does not exist)
p1996
tp1997
a(V/w/index.php?title=Styposis_lutea&action=edit&redlink=1
p1998
VStyposis lutea (page does not exist)
p1999
tp2000
a(V/wiki/Syncopacma_lutea
p2001
VSyncopacma lutea
p2002
tp2003
asVS. macrophyllus
p2004
(lp2005
(V/w/index.php?title=Ligularia_macrophylla&action=edit&redlink=1
p2006
VLigularia macrophylla (page does not exist)
p2007
tp2008
a(V/wiki/Sicyos_macrophyllus
p2009
VSicyos macrophyllus
p2010
tp2011
asVS. maculata
p2012
(lp2013
(V/wiki/Sabatia_maculata
p2014
VSabatia maculata
p2015
tp2016
a(V/w/index.php?title=Saccogaster_maculata&action=edit&redlink=1
p2017
VSaccogaster maculata (page does not exist)
p2018
tp2019
a(V/wiki/Salisia_maculata
p2020
VSalisia maculata
p2021
tp2022
a(V/wiki/Sarangesa_maculata
p2023
VSarangesa maculata
p2024
tp2025
a(V/w/index.php?title=Scapteira_maculata&action=edit&redlink=1
p2026
VScapteira maculata (page does not exist)
p2027
tp2028
a(V/w/index.php?title=Scardamia_maculata&action=edit&redlink=1
p2029
VScardamia maculata (page does not exist)
p2030
tp2031
a(V/wiki/Schinia_maculata
p2032
VSchinia maculata
p2033
tp2034
a(V/w/index.php?title=Scolia_maculata&action=edit&redlink=1
p2035
VScolia maculata (page does not exist)
p2036
tp2037
a(V/w/index.php?title=Selenaria_maculata&action=edit&redlink=1
p2038
VSelenaria maculata (page does not exist)
p2039
tp2040
a(V/wiki/Setia_maculata
p2041
VSetia maculata
p2042
tp2043
a(V/w/index.php?title=Shebania_maculata&action=edit&redlink=1
p2044
VShebania maculata (page does not exist)
p2045
tp2046
a(V/wiki/Sigapatella_maculata
p2047
VSigapatella maculata
p2048
tp2049
a(V/wiki/Sillago_maculata
p2050
VSillago maculata
p2051
tp2052
a(V/wiki/Siphona_maculata
p2053
VSiphona maculata
p2054
tp2055
a(V/w/index.php?title=Skenea_maculata&action=edit&redlink=1
p2056
VSkenea maculata (page does not exist)
p2057
tp2058
a(V/wiki/Solariella_maculata
p2059
VSolariella maculata
p2060
tp2061
a(V/w/index.php?title=Spermophora_maculata&action=edit&redlink=1
p2062
VSpermophora maculata (page does not exist)
p2063
tp2064
a(V/w/index.php?title=Spiloconis_maculata&action=edit&redlink=1
p2065
VSpiloconis maculata (page does not exist)
p2066
tp2067
a(V/w/index.php?title=Squilla_maculata&action=edit&redlink=1
p2068
VSquilla maculata (page does not exist)
p2069
tp2070
a(V/wiki/Stachyris_maculata
p2071
VStachyris maculata
p2072
tp2073
a(V/w/index.php?title=Stagmomantis_maculata&action=edit&redlink=1
p2074
VStagmomantis maculata (page does not exist)
p2075
tp2076
a(V/w/index.php?title=Stathmopoda_maculata&action=edit&redlink=1
p2077
VStathmopoda maculata (page does not exist)
p2078
tp2079
a(V/wiki/Statilia_maculata
p2080
VStatilia maculata
p2081
tp2082
a(V/w/index.php?title=Stauntonia_maculata&action=edit&redlink=1
p2083
VStauntonia maculata (page does not exist)
p2084
tp2085
a(V/wiki/Stellognatha_maculata
p2086
VStellognatha maculata
p2087
tp2088
a(V/wiki/Stomatella_maculata
p2089
VStomatella maculata
p2090
tp2091
a(V/wiki/Stratiomys_maculata
p2092
VStratiomys maculata
p2093
tp2094
a(V/wiki/Subula_maculata
p2095
VSubula maculata
p2096
tp2097
a(V/wiki/Swanka_maculata
p2098
VSwanka maculata
p2099
tp2100
a(V/w/index.php?title=Symbolia_maculata&action=edit&redlink=1
p2101
VSymbolia maculata (page does not exist)
p2102
tp2103
a(V/wiki/Synapta_maculata
p2104
VSynapta maculata
p2105
tp2106
a(V/w/index.php?title=Synaptula_maculata&action=edit&redlink=1
p2107
VSynaptula maculata (page does not exist)
p2108
tp2109
a(V/wiki/Synemon_maculata
p2110
VSynemon maculata
p2111
tp2112
asVS. Mahalingam
p2113
(lp2114
(V/wiki/S._Mahalingam_(engineer)
p2115
VS. Mahalingam (engineer)
p2116
tp2117
a(V/wiki/S._Mahalingam_(veterinarian)
p2118
VS. Mahalingam (veterinarian)
p2119
tp2120
asVS. malayanus
p2121
(lp2122
(V/w/index.php?title=Sphecius_malayanus&action=edit&redlink=1
p2123
VSphecius malayanus (page does not exist)
p2124
tp2125
a(V/wiki/Suncus_malayanus
p2126
VSuncus malayanus
p2127
tp2128
a(V/wiki/Synagrops_malayanus
p2129
VSynagrops malayanus
p2130
tp2131
asVS. maritima
p2132
(lp2133
(V/wiki/Sabal_maritima
p2134
VSabal maritima
p2135
tp2136
a(V/wiki/Spartina_maritima
p2137
VSpartina maritima
p2138
tp2139
asVS. maxima
p2140
(lp2141
(V/wiki/Sagina_maxima
p2142
VSagina maxima
p2143
tp2144
a(V/wiki/Sarangesa_maxima
p2145
VSarangesa maxima
p2146
tp2147
a(V/wiki/Shorea_maxima
p2148
VShorea maxima
p2149
tp2150
a(V/wiki/Solandra_maxima
p2151
VSolandra maxima
p2152
tp2153
a(V/wiki/Sterna_maxima
p2154
VSterna maxima
p2155
tp2156
asVS. maximus
p2157
(lp2158
(V/wiki/Saltator_maximus
p2159
VSaltator maximus
p2160
tp2161
a(V/wiki/Saurophaganax_maximus
p2162
VSaurophaganax maximus
p2163
tp2164
asVS. metallica
p2165
(lp2166
(V/wiki/Sabera_metallica
p2167
VSabera metallica
p2168
tp2169
a(V/wiki/Somatochlora_metallica
p2170
VSomatochlora metallica
p2171
tp2172
asVS. mexicana
p2173
(lp2174
(V/wiki/Sabal_mexicana
p2175
VSabal mexicana
p2176
tp2177
a(V/wiki/Salvia_mexicana
p2178
VSalvia mexicana
p2179
tp2180
asVS. militaris
p2181
(lp2182
(V/wiki/Sophronitis_militaris
p2183
VSophronitis militaris
p2184
tp2185
a(V/wiki/Sturnella_militaris
p2186
VSturnella militaris
p2187
tp2188
asVS. minutus
p2189
(lp2190
(V/wiki/Sorex_minutus
p2191
VSorex minutus
p2192
tp2193
a(V/wiki/Strongylognathus_minutus
p2194
VStrongylognathus minutus
p2195
tp2196
asVS. montana
p2197
(lp2198
(V/wiki/Sarcopteryx_montana
p2199
VSarcopteryx montana
p2200
tp2201
a(V/wiki/Saurauia_montana
p2202
VSaurauia montana
p2203
tp2204
a(V/wiki/Schistura_montana
p2205
VSchistura montana
p2206
tp2207
a(V/wiki/Scutellaria_montana
p2208
VScutellaria montana
p2209
tp2210
a(V/wiki/Sozusa_montana
p2211
VSozusa montana
p2212
tp2213
a(V/wiki/Sphegina_montana
p2214
VSphegina montana
p2215
tp2216
a(V/wiki/Stagmomantis_montana
p2217
VStagmomantis montana
p2218
tp2219
a(V/wiki/Stigmella_montana
p2220
VStigmella montana
p2221
tp2222
a(V/wiki/Sycacantha_montana
p2223
VSycacantha montana
p2224
tp2225
a(V/wiki/Syssphinx_montana
p2226
VSyssphinx montana
p2227
tp2228
asVS. nana
p2229
(lp2230
(V/wiki/Scoliacma_nana
p2231
VScoliacma nana
p2232
tp2233
a(V/wiki/Scutellaria_nana
p2234
VScutellaria nana
p2235
tp2236
a(V/w/index.php?title=Siebera_nana&action=edit&redlink=1
p2237
VSiebera nana (page does not exist)
p2238
tp2239
a(V/wiki/Sphingonaepiopsis_nana
p2240
VSphingonaepiopsis nana
p2241
tp2242
a(V/w/index.php?title=Stelis_nana&action=edit&redlink=1
p2243
VStelis nana (page does not exist)
p2244
tp2245
a(V/wiki/Stiobia_nana
p2246
VStiobia nana
p2247
tp2248
a(V/wiki/Sturnira_nana
p2249
VSturnira nana
p2250
tp2251
a(V/wiki/Asian_desert_warbler
p2252
VAsian desert warbler
p2253
tp2254
a(V/wiki/Synanceia_nana
p2255
VSynanceia nana
p2256
tp2257
asVS. nanus
p2258
(lp2259
(V/wiki/Somatogyrus_nanus
p2260
VSomatogyrus nanus
p2261
tp2262
a(V/wiki/Sorex_nanus
p2263
VSorex nanus
p2264
tp2265
a(V/wiki/Spizaetus_nanus
p2266
VSpizaetus nanus
p2267
tp2268
asVS. natalensis
p2269
(lp2270
(V/wiki/Sevenia_natalensis
p2271
VSevenia natalensis
p2272
tp2273
a(V/wiki/Streptomyces_natalensis
p2274
VStreptomyces natalensis
p2275
tp2276
asVS. neglecta
p2277
(lp2278
(V/w/index.php?title=Scorpaena_neglecta&action=edit&redlink=1
p2279
VScorpaena neglecta (page does not exist)
p2280
tp2281
a(V/wiki/Serapias_neglecta
p2282
VSerapias neglecta
p2283
tp2284
a(V/wiki/Sitta_neglecta
p2285
VSitta neglecta
p2286
tp2287
a(V/wiki/Sturnella_neglecta
p2288
VSturnella neglecta
p2289
tp2290
asVS. nepalensis
p2291
(lp2292
(V/w/index.php?title=Saropogon_nepalensis&action=edit&redlink=1
p2293
VSaropogon nepalensis (page does not exist)
p2294
tp2295
a(V/w/index.php?title=Satoblephara_nepalensis&action=edit&redlink=1
p2296
VSatoblephara nepalensis (page does not exist)
p2297
tp2298
a(V/w/index.php?title=Saurauia_nepalensis&action=edit&redlink=1
p2299
VSaurauia nepalensis (page does not exist)
p2300
tp2301
a(V/w/index.php?title=Saussurea_nepalensis&action=edit&redlink=1
p2302
VSaussurea nepalensis (page does not exist)
p2303
tp2304
a(V/wiki/Schizothorax_nepalensis
p2305
VSchizothorax nepalensis
p2306
tp2307
a(V/wiki/Scirpophaga_nepalensis
p2308
VScirpophaga nepalensis
p2309
tp2310
a(V/wiki/Scopula_nepalensis
p2311
VScopula nepalensis
p2312
tp2313
a(V/wiki/Scutiger_nepalensis
p2314
VScutiger nepalensis
p2315
tp2316
a(V/w/index.php?title=Skorlagad_nepalensis&action=edit&redlink=1
p2317
VSkorlagad nepalensis (page does not exist)
p2318
tp2319
a(V/w/index.php?title=Somatochlora_nepalensis&action=edit&redlink=1
p2320
VSomatochlora nepalensis (page does not exist)
p2321
tp2322
a(V/wiki/Staphylococcus_nepalensis
p2323
VStaphylococcus nepalensis
p2324
tp2325
a(V/w/index.php?title=Stellaria_nepalensis&action=edit&redlink=1
p2326
VStellaria nepalensis (page does not exist)
p2327
tp2328
a(V/w/index.php?title=Stenolophus_nepalensis&action=edit&redlink=1
p2329
VStenolophus nepalensis (page does not exist)
p2330
tp2331
a(V/w/index.php?title=Stephostethus_nepalensis&action=edit&redlink=1
p2332
VStephostethus nepalensis (page does not exist)
p2333
tp2334
a(V/w/index.php?title=Styringomyia_nepalensis&action=edit&redlink=1
p2335
VStyringomyia nepalensis (page does not exist)
p2336
tp2337
a(V/w/index.php?title=Sympycnus_nepalensis&action=edit&redlink=1
p2338
VSympycnus nepalensis (page does not exist)
p2339
tp2340
a(V/w/index.php?title=Synagelides_nepalensis&action=edit&redlink=1
p2341
VSynagelides nepalensis (page does not exist)
p2342
tp2343
a(V/w/index.php?title=Syntomus_nepalensis&action=edit&redlink=1
p2344
VSyntomus nepalensis (page does not exist)
p2345
tp2346
asVS. niger
p2347
(lp2348
(V/wiki/Sciurus_niger
p2349
VSciurus niger
p2350
tp2351
a(V/wiki/Serrasalmus_rhombeus
p2352
VSerrasalmus rhombeus
p2353
tp2354
a(V/wiki/Sphodros_niger
p2355
VSphodros niger
p2356
tp2357
a(V/wiki/Streptanthus_niger
p2358
VStreptanthus niger
p2359
tp2360
asVS. nigra
p2361
(lp2362
(V/wiki/Salix_nigra
p2363
VSalix nigra
p2364
tp2365
a(V/wiki/Sambucus_nigra
p2366
VSambucus nigra
p2367
tp2368
asVS. nigricans
p2369
(lp2370
(V/wiki/Santiria_nigricans
p2371
VSantiria nigricans
p2372
tp2373
a(V/wiki/Sayornis_nigricans
p2374
VSayornis nigricans
p2375
tp2376
a(V/w/index.php?title=Scambus_nigricans&action=edit&redlink=1
p2377
VScambus nigricans (page does not exist)
p2378
tp2379
a(V/wiki/Serpophaga_nigricans
p2380
VSerpophaga nigricans
p2381
tp2382
a(V/w/index.php?title=Siphona_nigricans&action=edit&redlink=1
p2383
VSiphona nigricans (page does not exist)
p2384
tp2385
a(V/wiki/Stegastes_nigricans
p2386
VStegastes nigricans
p2387
tp2388
a(V/w/index.php?title=Strophius_nigricans&action=edit&redlink=1
p2389
VStrophius nigricans (page does not exist)
p2390
tp2391
asVS. nigricauda
p2392
(lp2393
(V/wiki/Sipia_nigricauda
p2394
VSipia nigricauda
p2395
tp2396
a(V/w/index.php?title=Spicara_nigricauda&action=edit&redlink=1
p2397
VSpicara nigricauda (page does not exist)
p2398
tp2399
a(V/w/index.php?title=Stenaelurillus_nigricauda&action=edit&redlink=1
p2400
VStenaelurillus nigricauda (page does not exist)
p2401
tp2402
asVS. nigrum
p2403
(lp2404
(V/wiki/Solanum_nigrum
p2405
VSolanum nigrum
p2406
tp2407
a(V/wiki/Sorghum_bicolor
p2408
VSorghum bicolor
p2409
tp2410
asVS. nitida
p2411
(lp2412
(V/wiki/Segmentina_nitida
p2413
VSegmentina nitida
p2414
tp2415
a(V/wiki/Soletellina_nitida
p2416
VSoletellina nitida
p2417
tp2418
asVS. nivalis
p2419
(lp2420
(V/w/index.php?title=Sagina_nivalis&action=edit&redlink=1
p2421
VSagina nivalis (page does not exist)
p2422
tp2423
a(V/wiki/Salix_nivalis
p2424
VSalix nivalis
p2425
tp2426
a(V/wiki/Saxifraga_nivalis
p2427
VSaxifraga nivalis
p2428
tp2429
asVS. nivea
p2430
(lp2431
(V/wiki/Symplocos_nivea
p2432
VSymplocos nivea
p2433
tp2434
a(V/wiki/Syrmoptera_nivea
p2435
VSyrmoptera nivea
p2436
tp2437
asVS. nobilis
p2438
(lp2439
(V/wiki/Sphenopsalis_nobilis
p2440
VSphenopsalis nobilis
p2441
tp2442
a(V/wiki/Steatoda_nobilis
p2443
VSteatoda nobilis
p2444
tp2445
asVS. occidentalis
p2446
(lp2447
(V/wiki/Sarcoscypha_occidentalis
p2448
VSarcoscypha occidentalis
p2449
tp2450
a(V/wiki/Sceloporus_occidentalis
p2451
VSceloporus occidentalis
p2452
tp2453
a(V/wiki/Senna_occidentalis
p2454
VSenna occidentalis
p2455
tp2456
a(V/w/index.php?title=Sorbus_occidentalis&action=edit&redlink=1
p2457
VSorbus occidentalis (page does not exist)
p2458
tp2459
asVS. occultus
p2460
(lp2461
(V/wiki/Saltuarius_occultus
p2462
VSaltuarius occultus
p2463
tp2464
a(V/w/index.php?title=Selenops_occultus&action=edit&redlink=1
p2465
VSelenops occultus (page does not exist)
p2466
tp2467
a(V/wiki/Stagnicola_occultus
p2468
VStagnicola occultus
p2469
tp2470
asVS. oculatus
p2471
(lp2472
(V/wiki/Sciurus_oculatus
p2473
VSciurus oculatus
p2474
tp2475
a(V/wiki/Scombrops_oculatus
p2476
VScombrops oculatus
p2477
tp2478
asVS. officinalis
p2479
(lp2480
(V/wiki/Salvia_officinalis
p2481
VSalvia officinalis
p2482
tp2483
a(V/wiki/Sanguisorba_officinalis
p2484
VSanguisorba officinalis
p2485
tp2486
a(V/wiki/Saponaria_officinalis
p2487
VSaponaria officinalis
p2488
tp2489
a(V/wiki/Sepia_officinalis
p2490
VSepia officinalis
p2491
tp2492
a(V/wiki/Stachys_officinalis
p2493
VStachys officinalis
p2494
tp2495
a(V/wiki/Styrax_officinalis
p2496
VStyrax officinalis
p2497
tp2498
asVS. orientalis
p2499
(lp2500
(V/wiki/Sarda_orientalis
p2501
VSarda orientalis
p2502
tp2503
a(V/wiki/Serapias_orientalis
p2504
VSerapias orientalis
p2505
tp2506
a(V/wiki/Serrata_orientalis
p2507
VSerrata orientalis
p2508
tp2509
a(V/wiki/Shenzhousaurus_orientalis
p2510
VShenzhousaurus orientalis
p2511
tp2512
a(V/wiki/Sinhalestes_orientalis
p2513
VSinhalestes orientalis
p2514
tp2515
a(V/wiki/Stalpersia_orientalis
p2516
VStalpersia orientalis
p2517
tp2518
a(V/wiki/Stigmella_orientalis
p2519
VStigmella orientalis
p2520
tp2521
a(V/wiki/Streptomyces_orientalis
p2522
VStreptomyces orientalis
p2523
tp2524
a(V/wiki/Synodus_orientalis
p2525
VSynodus orientalis
p2526
tp2527
asVS. ornatus
p2528
(lp2529
(V/wiki/Scotomanes_ornatus
p2530
VScotomanes ornatus
p2531
tp2532
a(V/wiki/Sorex_ornatus
p2533
VSorex ornatus
p2534
tp2535
a(V/wiki/Spizaetus_ornatus
p2536
VSpizaetus ornatus
p2537
tp2538
asVS. P. Singh
p2539
(lp2540
(V/wiki/S._P._Singh_(biochemist)
p2541
VS. P. Singh (biochemist)
p2542
tp2543
a(V/wiki/S._P._Singh_(jurist)
p2544
VS. P. Singh (jurist)
p2545
tp2546
asVS. palustris
p2547
(lp2548
(V/wiki/Sorex_palustris
p2549
VSorex palustris
p2550
tp2551
a(V/wiki/Sphaenorhynchus_palustris
p2552
VSphaenorhynchus palustris
p2553
tp2554
a(V/wiki/Stachys_palustris
p2555
VStachys palustris
p2556
tp2557
a(V/wiki/Stagnicola_palustris
p2558
VStagnicola palustris
p2559
tp2560
a(V/wiki/Sylvilagus_palustris
p2561
VSylvilagus palustris
p2562
tp2563
asVS. paniculata
p2564
(lp2565
(V/wiki/Saxifraga_paniculata
p2566
VSaxifraga paniculata
p2567
tp2568
a(V/wiki/Stephanomeria_paniculata
p2569
VStephanomeria paniculata
p2570
tp2571
a(V/wiki/Symmeria_paniculata
p2572
VSymmeria paniculata
p2573
tp2574
a(V/wiki/Stirlingia_latifolia
p2575
VStirlingia latifolia
p2576
tp2577
asVS. pentaphylla
p2578
(lp2579
(V/w/index.php?title=Sophora_pentaphylla&action=edit&redlink=1
p2580
VSophora pentaphylla (page does not exist)
p2581
tp2582
a(V/wiki/Succisa_pentaphylla
p2583
VSuccisa pentaphylla
p2584
tp2585
asVS. petiolaris
p2586
(lp2587
(V/wiki/Salix_petiolaris
p2588
VSalix petiolaris
p2589
tp2590
a(V/w/index.php?title=Siparuna_petiolaris&action=edit&redlink=1
p2591
VSiparuna petiolaris (page does not exist)
p2592
tp2593
a(V/wiki/Solidago_petiolaris
p2594
VSolidago petiolaris
p2595
tp2596
a(V/wiki/Stemonoporus_petiolaris
p2597
VStemonoporus petiolaris
p2598
tp2599
a(V/wiki/Synaphea_petiolaris
p2600
VSynaphea petiolaris
p2601
tp2602
asVS. phyllostachydis
p2603
(lp2604
(V/w/index.php?title=Scolicotrichum_phyllostachydis&action=edit&redlink=1
p2605
VScolicotrichum phyllostachydis (page does not exist)
p2606
tp2607
a(V/w/index.php?title=Scyphospora_phyllostachydis&action=edit&redlink=1
p2608
VScyphospora phyllostachydis (page does not exist)
p2609
tp2610
a(V/w/index.php?title=Shiraiella_phyllostachydis&action=edit&redlink=1
p2611
VShiraiella phyllostachydis (page does not exist)
p2612
tp2613
a(V/w/index.php?title=Solosympodiella_phyllostachydis&action=edit&redlink=1
p2614
VSolosympodiella phyllostachydis (page does not exist)
p2615
tp2616
asVS. plicata
p2617
(lp2618
(V/wiki/Spathoglottis_plicata
p2619
VSpathoglottis plicata
p2620
tp2621
a(V/wiki/Styela_plicata
p2622
VStyela plicata
p2623
tp2624
asVS. poeppigii
p2625
(lp2626
(V/w/index.php?title=Scleria_poeppigii&action=edit&redlink=1
p2627
VScleria poeppigii (page does not exist)
p2628
tp2629
a(V/w/index.php?title=Senecio_poeppigii&action=edit&redlink=1
p2630
VSenecio poeppigii (page does not exist)
p2631
tp2632
a(V/w/index.php?title=Siparuna_poeppigii&action=edit&redlink=1
p2633
VSiparuna poeppigii (page does not exist)
p2634
tp2635
a(V/wiki/Streptocalyx_poeppigii
p2636
VStreptocalyx poeppigii
p2637
tp2638
a(V/wiki/Syngonium_poeppigii
p2639
VSyngonium poeppigii
p2640
tp2641
asVS. polyclada
p2642
(lp2643
(V/wiki/Schefflera_polyclada
p2644
VSchefflera polyclada
p2645
tp2646
a(V/w/index.php?title=Scorzonera_polyclada&action=edit&redlink=1
p2647
VScorzonera polyclada (page does not exist)
p2648
tp2649
asVS. polymorpha
p2650
(lp2651
(V/w/index.php?title=Sacciolepis_polymorpha&action=edit&redlink=1
p2652
VSacciolepis polymorpha (page does not exist)
p2653
tp2654
a(V/wiki/Scolopendra_polymorpha
p2655
VScolopendra polymorpha
p2656
tp2657
a(V/w/index.php?title=Siphonosopra_polymorpha&action=edit&redlink=1
p2658
VSiphonosopra polymorpha (page does not exist)
p2659
tp2660
a(V/w/index.php?title=Sporichthya_polymorpha&action=edit&redlink=1
p2661
VSporichthya polymorpha (page does not exist)
p2662
tp2663
a(V/wiki/Stigmella_polymorpha
p2664
VStigmella polymorpha
p2665
tp2666
a(V/wiki/Synaphea_polymorpha
p2667
VSynaphea polymorpha
p2668
tp2669
asVS. pratensis
p2670
(lp2671
(V/wiki/Salvia_pratensis
p2672
VSalvia pratensis
p2673
tp2674
a(V/wiki/Succisa_pratensis
p2675
VSuccisa pratensis
p2676
tp2677
asVS. princeps
p2678
(lp2679
(V/wiki/Spondylus_princeps
p2680
VSpondylus princeps
p2681
tp2682
a(V/wiki/Stephanorrhina_princeps
p2683
VStephanorrhina princeps
p2684
tp2685
a(V/w/index.php?title=Styringomyia_princeps&action=edit&redlink=1
p2686
VStyringomyia princeps (page does not exist)
p2687
tp2688
asVS. proximus
p2689
(lp2690
(V/w/index.php?title=Senoculus_proximus&action=edit&redlink=1
p2691
VSenoculus proximus (page does not exist)
p2692
tp2693
a(V/wiki/Siphonops_proximus
p2694
VSiphonops proximus
p2695
tp2696
a(V/wiki/Spirembolus_proximus
p2697
VSpirembolus proximus
p2698
tp2699
asVS. purpurascens
p2700
(lp2701
(V/wiki/Sphenarium_purpurascens
p2702
VSphenarium purpurascens
p2703
tp2704
a(V/wiki/Sthenopis_purpurascens
p2705
VSthenopis purpurascens
p2706
tp2707
asVS. R. Russell
p2708
(lp2709
(V/wiki/Steve_Russell_(computer_scientist)
p2710
VSteve Russell (computer scientist)
p2711
tp2712
a(V/wiki/Sam_Russell_(footballer_born_1900)
p2713
VSam Russell (footballer born 1900)
p2714
tp2715
asVS. Rajendran
p2716
(lp2717
(V/wiki/S._Rajendran_(AIADMK_politician)
p2718
VS. Rajendran (AIADMK politician)
p2719
tp2720
a(V/wiki/S._Rajendran_(CPI_politician)
p2721
VS. Rajendran (CPI politician)
p2722
tp2723
asVS. Ramachandran
p2724
(lp2725
(V/wiki/S._Ramachandran_(scientist)
p2726
VS. Ramachandran (scientist)
p2727
tp2728
a(V/wiki/Vilayanur_S._Ramachandran
p2729
VVilayanur S. Ramachandran
p2730
tp2731
a(V/wiki/N._S._Ramachandran
p2732
VN. S. Ramachandran
p2733
tp2734
a(V/wiki/Subramaniam_Ramachandran
p2735
VSubramaniam Ramachandran
p2736
tp2737
a(V/wiki/Panruti_S._Ramachandran
p2738
VPanruti S. Ramachandran
p2739
tp2740
a(V/wiki/S._Ramachandran_Pillai
p2741
VS. Ramachandran Pillai
p2742
tp2743
a(V/wiki/S._Ramachandran_(filmmaker)
p2744
VS. Ramachandran (filmmaker)
p2745
tp2746
a(V/wiki/Srinivasan_Ramachandran
p2747
VSrinivasan Ramachandran
p2748
tp2749
asVS. Ramanathan
p2750
(lp2751
(V/wiki/S._Ramanathan_(politician)
p2752
VS. Ramanathan (politician)
p2753
tp2754
a(V/wiki/S._Ramanathan_(musician)
p2755
VS. Ramanathan (musician)
p2756
tp2757
a(V/wiki/S._Ramanathan_(film_director)
p2758
VS. Ramanathan (film director)
p2759
tp2760
a(V/wiki/S._R._Nathan
p2761
VS. R. Nathan
p2762
tp2763
asVS. Ravi
p2764
(lp2765
sVS. reticulata
p2766
(lp2767
(V/wiki/Salix_reticulata
p2768
VSalix reticulata
p2769
tp2770
a(V/wiki/Scenella_reticulata
p2771
VScenella reticulata
p2772
tp2773
a(V/wiki/Schistura_reticulata
p2774
VSchistura reticulata
p2775
tp2776
a(V/wiki/Senna_reticulata
p2777
VSenna reticulata
p2778
tp2779
a(V/wiki/Sideridis_reticulata
p2780
VSideridis reticulata
p2781
tp2782
a(V/wiki/Stephania_reticulata
p2783
VStephania reticulata
p2784
tp2785
a(V/wiki/Syringa_reticulata
p2786
VSyringa reticulata
p2787
tp2788
asVS. robusta
p2789
(lp2790
(V/wiki/Sauvagella_robusta
p2791
VSauvagella robusta
p2792
tp2793
a(V/wiki/Scaphella_robusta
p2794
VScaphella robusta
p2795
tp2796
a(V/wiki/Serrata_robusta
p2797
VSerrata robusta
p2798
tp2799
a(V/wiki/Shorea_robusta
p2800
VShorea robusta
p2801
tp2802
a(V/wiki/Sillago_robusta
p2803
VSillago robusta
p2804
tp2805
asVS. robustum
p2806
(lp2807
(V/wiki/Saccharum_robustum
p2808
VSaccharum robustum
p2809
tp2810
a(V/wiki/Sason_robustum
p2811
VSason robustum
p2812
tp2813
a(V/wiki/Sturisoma_robustum
p2814
VSturisoma robustum
p2815
tp2816
asVS. robustus
p2817
(lp2818
(V/wiki/Sclerobunus_robustus
p2819
VSclerobunus robustus
p2820
tp2821
a(V/wiki/Scotophilus_robustus
p2822
VScotophilus robustus
p2823
tp2824
a(V/wiki/Sinocyclocheilus_robustus
p2825
VSinocyclocheilus robustus
p2826
tp2827
a(V/wiki/Solegnathus_robustus
p2828
VSolegnathus robustus
p2829
tp2830
a(V/wiki/Spratelloides_robustus
p2831
VSpratelloides robustus
p2832
tp2833
a(V/wiki/Sylvilagus_robustus
p2834
VSylvilagus robustus
p2835
tp2836
asVS. rosea
p2837
(lp2838
(V/wiki/Sarracenia_rosea
p2839
VSarracenia rosea
p2840
tp2841
a(V/wiki/Scissurona_rosea
p2842
VScissurona rosea
p2843
tp2844
a(V/wiki/Solanella_rosea
p2845
VSolanella rosea
p2846
tp2847
asVS. roseum
p2848
(lp2849
(V/wiki/Solanum_roseum
p2850
VSolanum roseum
p2851
tp2852
a(V/wiki/Stephopoma_roseum
p2853
VStephopoma roseum
p2854
tp2855
asVS. rubra
p2856
(lp2857
(V/wiki/Sarracenia_rubra
p2858
VSarracenia rubra
p2859
tp2860
a(V/wiki/Spergularia_rubra
p2861
VSpergularia rubra
p2862
tp2863
asVS. S. Stevens
p2864
(lp2865
(V/wiki/Stanley_Smith_Stevens
p2866
VStanley Smith Stevens
p2867
tp2868
a(V/wiki/SS_Stevens
p2869
VSS Stevens
p2870
tp2871
asVS. salicifolia
p2872
(lp2873
(V/w/index.php?title=Spiraea_salicifolia&action=edit&redlink=1
p2874
VSpiraea salicifolia (page does not exist)
p2875
tp2876
a(V/w/index.php?title=Stevia_salicifolia&action=edit&redlink=1
p2877
VStevia salicifolia (page does not exist)
p2878
tp2879
as.